; ModuleID = 'C:/Users/Matthew/Desktop/embs_open2/particle_sim_hls/solution1/.autopilot/db/a.o.2.bc'
target datalayout = "e-p:64:64:64-i1:8:8-i8:8:8-i16:16:16-i32:32:32-i64:64:64-f32:32:32-f64:64:64-v64:64:64-v128:128:128-a0:0:64-s0:64:64-f80:128:128-n8:16:32:64-S128"
target triple = "x86_64-w64-mingw32"

@toplevel.str = internal unnamed_addr constant [9 x i8] c"toplevel\00" ; [#uses=1 type=[9 x i8]*]
@numberParticles = global i32 0, align 4          ; [#uses=1 type=i32*]
@numberAttractors = global i32 0, align 4         ; [#uses=2 type=i32*]
@llvm.global_ctors.1 = appending global [1 x void ()*] [void ()* @_GLOBAL__I_a] ; [#uses=0 type=[1 x void ()*]*]
@llvm.global_ctors.0 = appending global [1 x i32] [i32 65535] ; [#uses=0 type=[1 x i32]*]
@.str7 = private unnamed_addr constant [22 x i8] c"calculateVelocityLoop\00", align 1 ; [#uses=3 type=[22 x i8]*]
@.str6 = private unnamed_addr constant [19 x i8] c"updateParticleLoop\00", align 1 ; [#uses=3 type=[19 x i8]*]
@.str5 = private unnamed_addr constant [9 x i8] c"AXILiteS\00", align 1 ; [#uses=3 type=[9 x i8]*]
@.str4 = private unnamed_addr constant [10 x i8] c"s_axilite\00", align 1 ; [#uses=3 type=[10 x i8]*]
@.str3 = private unnamed_addr constant [1 x i8] zeroinitializer, align 1 ; [#uses=15 type=[1 x i8]*]
@.str2 = private unnamed_addr constant [6 x i8] c"slave\00", align 1 ; [#uses=1 type=[6 x i8]*]
@.str1 = private unnamed_addr constant [5 x i8] c"MAXI\00", align 1 ; [#uses=1 type=[5 x i8]*]
@.str = private unnamed_addr constant [6 x i8] c"m_axi\00", align 1 ; [#uses=1 type=[6 x i8]*]

; [#uses=0]
define void @toplevel(float* %ram, i32* %numP, i32* %numA) nounwind uwtable {
  call void (...)* @_ssdm_op_SpecBitsMap(float* %ram) nounwind, !map !2674
  call void (...)* @_ssdm_op_SpecBitsMap(i32* %numP) nounwind, !map !2678
  call void (...)* @_ssdm_op_SpecBitsMap(i32* %numA) nounwind, !map !2682
  call void (...)* @_ssdm_op_SpecTopModule([9 x i8]* @toplevel.str) nounwind
  call void @llvm.dbg.value(metadata !{float* %ram}, i64 0, metadata !2686), !dbg !2692 ; [debug line = 9:22] [debug variable = ram]
  call void @llvm.dbg.value(metadata !{i32* %numP}, i64 0, metadata !2693), !dbg !2694 ; [debug line = 9:35] [debug variable = numP]
  call void @llvm.dbg.value(metadata !{i32* %numA}, i64 0, metadata !2695), !dbg !2696 ; [debug line = 9:49] [debug variable = numA]
  call void (...)* @_ssdm_op_SpecInterface(float* %ram, [6 x i8]* @.str, i32 0, i32 0, i32 0, i32 0, [5 x i8]* @.str1, [6 x i8]* @.str2, [1 x i8]* @.str3, i32 16, i32 16, i32 16, i32 16, [1 x i8]* @.str3) nounwind, !dbg !2697 ; [debug line = 10:1]
  call void (...)* @_ssdm_op_SpecInterface(i32* %numP, [10 x i8]* @.str4, i32 1, i32 1, i32 0, i32 0, [9 x i8]* @.str5, [1 x i8]* @.str3, [1 x i8]* @.str3, i32 0, i32 0, i32 0, i32 0, [1 x i8]* @.str3) nounwind, !dbg !2699 ; [debug line = 11:1]
  call void (...)* @_ssdm_op_SpecInterface(i32* %numA, [10 x i8]* @.str4, i32 1, i32 1, i32 0, i32 0, [9 x i8]* @.str5, [1 x i8]* @.str3, [1 x i8]* @.str3, i32 0, i32 0, i32 0, i32 0, [1 x i8]* @.str3) nounwind, !dbg !2700 ; [debug line = 12:1]
  call void (...)* @_ssdm_op_SpecInterface(i32 0, [10 x i8]* @.str4, i32 1, i32 1, i32 0, i32 0, [9 x i8]* @.str5, [1 x i8]* @.str3, [1 x i8]* @.str3, i32 0, i32 0, i32 0, i32 0, [1 x i8]* @.str3) nounwind, !dbg !2701 ; [debug line = 13:1]
  %numP.load = load i32* %numP, align 4, !dbg !2702 ; [#uses=2 type=i32] [debug line = 19:2]
  store i32 %numP.load, i32* @numberParticles, align 4, !dbg !2702 ; [debug line = 19:2]
  %numA.load = load i32* %numA, align 4, !dbg !2703 ; [#uses=1 type=i32] [debug line = 20:2]
  store i32 %numA.load, i32* @numberAttractors, align 4, !dbg !2703 ; [debug line = 20:2]
  %loopend = shl i32 %numP.load, 2, !dbg !2704    ; [#uses=1 type=i32] [debug line = 22:35]
  call void @llvm.dbg.value(metadata !{i32 %loopend}, i64 0, metadata !2705), !dbg !2704 ; [debug line = 22:35] [debug variable = loopend]
  br label %1, !dbg !2706                         ; [debug line = 23:39]

; <label>:1                                       ; preds = %12, %0
  %i = phi i32 [ 0, %0 ], [ %i.1, %12 ]           ; [#uses=6 type=i32]
  %tmp = icmp ult i32 %i, %loopend, !dbg !2706    ; [#uses=1 type=i1] [debug line = 23:39]
  br i1 %tmp, label %2, label %14, !dbg !2706     ; [debug line = 23:39]

; <label>:2                                       ; preds = %1
  call void (...)* @_ssdm_op_SpecLoopName([19 x i8]* @.str6) nounwind, !dbg !2708 ; [debug line = 23:62]
  %tmp. = call i32 (...)* @_ssdm_op_SpecRegionBegin([19 x i8]* @.str6) nounwind, !dbg !2708 ; [#uses=1 type=i32] [debug line = 23:62]
  call void (...)* @_ssdm_op_SpecPipeline(i32 -1, i32 1, i32 1, i32 0, [1 x i8]* @.str3) nounwind, !dbg !2710 ; [debug line = 24:1]
  call void (...)* @_ssdm_op_SpecLoopTripCount(i32 0, i32 12000, i32 12000, [1 x i8]* @.str3) nounwind, !dbg !2710 ; [debug line = 24:1]
  %tmp.1 = zext i32 %i to i64, !dbg !2711         ; [#uses=1 type=i64] [debug line = 26:21]
  %px = getelementptr inbounds float* %ram, i64 %tmp.1, !dbg !2711 ; [#uses=4 type=float*] [debug line = 26:21]
  call void @llvm.dbg.value(metadata !{float* %px}, i64 0, metadata !2712), !dbg !2711 ; [debug line = 26:21] [debug variable = px]
  %tmp.2 = or i32 %i, 1, !dbg !2713               ; [#uses=1 type=i32] [debug line = 27:26]
  %tmp.3 = zext i32 %tmp.2 to i64, !dbg !2713     ; [#uses=1 type=i64] [debug line = 27:26]
  %py = getelementptr inbounds float* %ram, i64 %tmp.3, !dbg !2713 ; [#uses=4 type=float*] [debug line = 27:26]
  call void @llvm.dbg.value(metadata !{float* %py}, i64 0, metadata !2714), !dbg !2713 ; [debug line = 27:26] [debug variable = py]
  %tmp.4 = or i32 %i, 2, !dbg !2715               ; [#uses=1 type=i32] [debug line = 28:27]
  %tmp.5 = zext i32 %tmp.4 to i64, !dbg !2715     ; [#uses=1 type=i64] [debug line = 28:27]
  %pvx = getelementptr inbounds float* %ram, i64 %tmp.5, !dbg !2715 ; [#uses=4 type=float*] [debug line = 28:27]
  call void @llvm.dbg.value(metadata !{float* %pvx}, i64 0, metadata !2716), !dbg !2715 ; [debug line = 28:27] [debug variable = pvx]
  %tmp.6 = or i32 %i, 3, !dbg !2717               ; [#uses=1 type=i32] [debug line = 29:27]
  %tmp.7 = zext i32 %tmp.6 to i64, !dbg !2717     ; [#uses=1 type=i64] [debug line = 29:27]
  %pvy = getelementptr inbounds float* %ram, i64 %tmp.7, !dbg !2717 ; [#uses=4 type=float*] [debug line = 29:27]
  call void @llvm.dbg.value(metadata !{float* %pvy}, i64 0, metadata !2718), !dbg !2717 ; [debug line = 29:27] [debug variable = pvy]
  %pvx.load = load float* %pvx, align 4, !dbg !2719 ; [#uses=2 type=float] [debug line = 31:3]
  %px.load = load float* %px, align 4, !dbg !2719 ; [#uses=1 type=float] [debug line = 31:3]
  %tmp.8 = fadd float %px.load, %pvx.load, !dbg !2719 ; [#uses=4 type=float] [debug line = 31:3]
  store float %tmp.8, float* %px, align 4, !dbg !2719 ; [debug line = 31:3]
  %pvy.load = load float* %pvy, align 4, !dbg !2720 ; [#uses=2 type=float] [debug line = 32:3]
  %py.load = load float* %py, align 4, !dbg !2720 ; [#uses=1 type=float] [debug line = 32:3]
  %tmp.9 = fadd float %py.load, %pvy.load, !dbg !2720 ; [#uses=4 type=float] [debug line = 32:3]
  store float %tmp.9, float* %py, align 4, !dbg !2720 ; [debug line = 32:3]
  %tmp.8_to_int = bitcast float %tmp.8 to i32     ; [#uses=2 type=i32]
  %tmp.12 = call i8 @_ssdm_op_PartSelect.i8.i32.i32.i32(i32 %tmp.8_to_int, i32 23, i32 30) ; [#uses=1 type=i8]
  %tmp.15 = trunc i32 %tmp.8_to_int to i23        ; [#uses=1 type=i23]
  %notlhs = icmp ne i8 %tmp.12, -1                ; [#uses=1 type=i1]
  %notrhs = icmp eq i23 %tmp.15, 0                ; [#uses=1 type=i1]
  %tmp.18 = or i1 %notrhs, %notlhs                ; [#uses=1 type=i1]
  %tmp.32 = fcmp ole float %tmp.8, 0.000000e+00, !dbg !2721 ; [#uses=1 type=i1] [debug line = 34:3]
  %tmp.33 = and i1 %tmp.18, %tmp.32, !dbg !2721   ; [#uses=1 type=i1] [debug line = 34:3]
  br i1 %tmp.33, label %3, label %._crit_edge, !dbg !2721 ; [debug line = 34:3]

; <label>:3                                       ; preds = %2
  store float 0.000000e+00, float* %px, align 4, !dbg !2722 ; [debug line = 35:4]
  store float 0.000000e+00, float* %pvx, align 4, !dbg !2724 ; [debug line = 36:4]
  br label %._crit_edge, !dbg !2725               ; [debug line = 37:3]

._crit_edge:                                      ; preds = %3, %2
  %tmp.10 = phi float [ 0.000000e+00, %3 ], [ %pvx.load, %2 ] ; [#uses=1 type=float]
  %tmp.11 = phi float [ 0.000000e+00, %3 ], [ %tmp.8, %2 ] ; [#uses=3 type=float]
  %tmp.9_to_int = bitcast float %tmp.9 to i32     ; [#uses=2 type=i32]
  %tmp.41 = call i8 @_ssdm_op_PartSelect.i8.i32.i32.i32(i32 %tmp.9_to_int, i32 23, i32 30) ; [#uses=1 type=i8]
  %tmp.43 = trunc i32 %tmp.9_to_int to i23        ; [#uses=1 type=i23]
  %notlhs7 = icmp ne i8 %tmp.41, -1               ; [#uses=1 type=i1]
  %notrhs8 = icmp eq i23 %tmp.43, 0               ; [#uses=1 type=i1]
  %tmp.44 = or i1 %notrhs8, %notlhs7              ; [#uses=1 type=i1]
  %tmp.45 = fcmp ole float %tmp.9, 0.000000e+00, !dbg !2726 ; [#uses=1 type=i1] [debug line = 38:3]
  %tmp.46 = and i1 %tmp.44, %tmp.45, !dbg !2726   ; [#uses=1 type=i1] [debug line = 38:3]
  br i1 %tmp.46, label %4, label %._crit_edge2, !dbg !2726 ; [debug line = 38:3]

; <label>:4                                       ; preds = %._crit_edge
  store float 0.000000e+00, float* %py, align 4, !dbg !2727 ; [debug line = 39:4]
  store float 0.000000e+00, float* %pvy, align 4, !dbg !2729 ; [debug line = 40:4]
  br label %._crit_edge2, !dbg !2730              ; [debug line = 41:3]

._crit_edge2:                                     ; preds = %4, %._crit_edge
  %tmp.13 = phi float [ 0.000000e+00, %4 ], [ %pvy.load, %._crit_edge ] ; [#uses=1 type=float]
  %tmp.14 = phi float [ 0.000000e+00, %4 ], [ %tmp.9, %._crit_edge ] ; [#uses=3 type=float]
  %tmp.11_to_int = bitcast float %tmp.11 to i32   ; [#uses=2 type=i32]
  %tmp.47 = call i8 @_ssdm_op_PartSelect.i8.i32.i32.i32(i32 %tmp.11_to_int, i32 23, i32 30) ; [#uses=1 type=i8]
  %tmp.48 = trunc i32 %tmp.11_to_int to i23       ; [#uses=1 type=i23]
  %notlhs9 = icmp ne i8 %tmp.47, -1               ; [#uses=1 type=i1]
  %notrhs1 = icmp eq i23 %tmp.48, 0               ; [#uses=1 type=i1]
  %tmp.49 = or i1 %notrhs1, %notlhs9              ; [#uses=1 type=i1]
  %tmp.50 = fcmp oge float %tmp.11, 1.440000e+03, !dbg !2731 ; [#uses=1 type=i1] [debug line = 42:3]
  %tmp.51 = and i1 %tmp.49, %tmp.50, !dbg !2731   ; [#uses=1 type=i1] [debug line = 42:3]
  br i1 %tmp.51, label %5, label %._crit_edge3, !dbg !2731 ; [debug line = 42:3]

; <label>:5                                       ; preds = %._crit_edge2
  store float 1.440000e+03, float* %px, align 4, !dbg !2732 ; [debug line = 43:4]
  store float 0.000000e+00, float* %pvx, align 4, !dbg !2734 ; [debug line = 44:4]
  br label %._crit_edge3, !dbg !2735              ; [debug line = 45:3]

._crit_edge3:                                     ; preds = %5, %._crit_edge2
  %tmp.16 = phi float [ 0.000000e+00, %5 ], [ %tmp.10, %._crit_edge2 ] ; [#uses=1 type=float]
  %tmp.17 = phi float [ 1.440000e+03, %5 ], [ %tmp.11, %._crit_edge2 ] ; [#uses=1 type=float]
  %tmp.14_to_int = bitcast float %tmp.14 to i32   ; [#uses=2 type=i32]
  %tmp.52 = call i8 @_ssdm_op_PartSelect.i8.i32.i32.i32(i32 %tmp.14_to_int, i32 23, i32 30) ; [#uses=1 type=i8]
  %tmp.53 = trunc i32 %tmp.14_to_int to i23       ; [#uses=1 type=i23]
  %notlhs1 = icmp ne i8 %tmp.52, -1               ; [#uses=1 type=i1]
  %notrhs2 = icmp eq i23 %tmp.53, 0               ; [#uses=1 type=i1]
  %tmp.54 = or i1 %notrhs2, %notlhs1              ; [#uses=1 type=i1]
  %tmp.55 = fcmp oge float %tmp.14, 9.000000e+02, !dbg !2736 ; [#uses=1 type=i1] [debug line = 46:3]
  %tmp.56 = and i1 %tmp.54, %tmp.55, !dbg !2736   ; [#uses=1 type=i1] [debug line = 46:3]
  br i1 %tmp.56, label %6, label %._crit_edge4, !dbg !2736 ; [debug line = 46:3]

; <label>:6                                       ; preds = %._crit_edge3
  store float 9.000000e+02, float* %py, align 4, !dbg !2737 ; [debug line = 47:4]
  store float 0.000000e+00, float* %pvy, align 4, !dbg !2739 ; [debug line = 48:4]
  br label %._crit_edge4, !dbg !2740              ; [debug line = 49:3]

._crit_edge4:                                     ; preds = %6, %._crit_edge3
  %tmp.19 = phi float [ 0.000000e+00, %6 ], [ %tmp.13, %._crit_edge3 ] ; [#uses=1 type=float]
  %tmp.20 = phi float [ 9.000000e+02, %6 ], [ %tmp.14, %._crit_edge3 ] ; [#uses=1 type=float]
  %numberAttractors.load = load i32* @numberAttractors, align 4, !dbg !2741 ; [#uses=2 type=i32] [debug line = 51:86]
  %_shl = shl i32 %numberAttractors.load, 2, !dbg !2741 ; [#uses=1 type=i32] [debug line = 51:86]
  %tmp.21 = sub i32 %_shl, %numberAttractors.load, !dbg !2741 ; [#uses=1 type=i32] [debug line = 51:86]
  %loopend.1 = add i32 %tmp.21, 48000, !dbg !2741 ; [#uses=1 type=i32] [debug line = 51:86]
  call void @llvm.dbg.value(metadata !{i32 %loopend.1}, i64 0, metadata !2742), !dbg !2741 ; [debug line = 51:86] [debug variable = loopend]
  br label %7, !dbg !2743                         ; [debug line = 52:83]

; <label>:7                                       ; preds = %._crit_edge5, %._crit_edge4
  %tmp.22 = phi float [ %tmp.19, %._crit_edge4 ], [ %tmp.39, %._crit_edge5 ] ; [#uses=2 type=float]
  %tmp.23 = phi float [ %tmp.16, %._crit_edge4 ], [ %tmp.40, %._crit_edge5 ] ; [#uses=2 type=float]
  %j = phi i32 [ 48000, %._crit_edge4 ], [ %j.1, %._crit_edge5 ] ; [#uses=4 type=i32]
  %tmp.24 = icmp slt i32 %j, %loopend.1, !dbg !2743 ; [#uses=1 type=i1] [debug line = 52:83]
  br i1 %tmp.24, label %8, label %12, !dbg !2743  ; [debug line = 52:83]

; <label>:8                                       ; preds = %7
  call void (...)* @_ssdm_op_SpecLoopName([22 x i8]* @.str7) nounwind, !dbg !2745 ; [debug line = 54:9]
  %tmp.42 = call i32 (...)* @_ssdm_op_SpecRegionBegin([22 x i8]* @.str7) nounwind, !dbg !2745 ; [#uses=1 type=i32] [debug line = 54:9]
  call void (...)* @_ssdm_op_SpecPipeline(i32 -1, i32 1, i32 1, i32 0, [1 x i8]* @.str3) nounwind, !dbg !2747 ; [debug line = 55:1]
  call void (...)* @_ssdm_op_SpecLoopTripCount(i32 0, i32 104, i32 104, [1 x i8]* @.str3) nounwind, !dbg !2747 ; [debug line = 55:1]
  %tmp.25 = add nsw i32 %j, 1, !dbg !2748         ; [#uses=1 type=i32] [debug line = 57:23]
  %tmp.26 = sext i32 %tmp.25 to i64, !dbg !2748   ; [#uses=1 type=i64] [debug line = 57:23]
  %ram.addr = getelementptr inbounds float* %ram, i64 %tmp.26, !dbg !2748 ; [#uses=1 type=float*] [debug line = 57:23]
  %ax = load float* %ram.addr, align 4, !dbg !2748 ; [#uses=1 type=float] [debug line = 57:23]
  call void @llvm.dbg.value(metadata !{float %ax}, i64 0, metadata !2749), !dbg !2748 ; [debug line = 57:23] [debug variable = ax]
  %tmp.27 = add nsw i32 %j, 2, !dbg !2750         ; [#uses=1 type=i32] [debug line = 58:25]
  %tmp.28 = sext i32 %tmp.27 to i64, !dbg !2750   ; [#uses=1 type=i64] [debug line = 58:25]
  %ram.addr.1 = getelementptr inbounds float* %ram, i64 %tmp.28, !dbg !2750 ; [#uses=1 type=float*] [debug line = 58:25]
  %ay = load float* %ram.addr.1, align 4, !dbg !2750 ; [#uses=1 type=float] [debug line = 58:25]
  call void @llvm.dbg.value(metadata !{float %ay}, i64 0, metadata !2751), !dbg !2750 ; [debug line = 58:25] [debug variable = ay]
  %j.1 = add nsw i32 %j, 3, !dbg !2752            ; [#uses=2 type=i32] [debug line = 59:24]
  %tmp.29 = sext i32 %j.1 to i64, !dbg !2752      ; [#uses=1 type=i64] [debug line = 59:24]
  %ram.addr.2 = getelementptr inbounds float* %ram, i64 %tmp.29, !dbg !2752 ; [#uses=1 type=float*] [debug line = 59:24]
  %g = load float* %ram.addr.2, align 4, !dbg !2752 ; [#uses=2 type=float] [debug line = 59:24]
  call void @llvm.dbg.value(metadata !{float %g}, i64 0, metadata !2753), !dbg !2752 ; [debug line = 59:24] [debug variable = g]
  %exp1 = fsub float %ax, %tmp.17, !dbg !2754     ; [#uses=3 type=float] [debug line = 61:27]
  call void @llvm.dbg.value(metadata !{float %exp1}, i64 0, metadata !2755), !dbg !2754 ; [debug line = 61:27] [debug variable = exp1]
  %exp2 = fsub float %ay, %tmp.20, !dbg !2756     ; [#uses=3 type=float] [debug line = 62:27]
  call void @llvm.dbg.value(metadata !{float %exp2}, i64 0, metadata !2757), !dbg !2756 ; [debug line = 62:27] [debug variable = exp2]
  %tmp.30 = fmul float %exp1, %exp1, !dbg !2758   ; [#uses=1 type=float] [debug line = 63:41]
  %tmp.31 = fmul float %exp2, %exp2, !dbg !2758   ; [#uses=1 type=float] [debug line = 63:41]
  %exp = fadd float %tmp.30, %tmp.31, !dbg !2758  ; [#uses=1 type=float] [debug line = 63:41]
  call void @llvm.dbg.value(metadata !{float %exp}, i64 0, metadata !2759), !dbg !2758 ; [debug line = 63:41] [debug variable = exp]
  %d = call float @llvm.sqrt.f32(float %exp), !dbg !2760 ; [#uses=7 type=float] [debug line = 66:14]
  call void @llvm.dbg.value(metadata !{float %d}, i64 0, metadata !2761), !dbg !2760 ; [debug line = 66:14] [debug variable = d]
  %d_to_int = bitcast float %d to i32             ; [#uses=2 type=i32]
  %tmp.57 = call i8 @_ssdm_op_PartSelect.i8.i32.i32.i32(i32 %d_to_int, i32 23, i32 30) ; [#uses=1 type=i8]
  %tmp.58 = trunc i32 %d_to_int to i23            ; [#uses=1 type=i23]
  %notlhs2 = icmp ne i8 %tmp.57, -1               ; [#uses=1 type=i1]
  %notrhs3 = icmp eq i23 %tmp.58, 0               ; [#uses=1 type=i1]
  %tmp.59 = or i1 %notrhs3, %notlhs2              ; [#uses=1 type=i1]
  %tmp.60 = fcmp olt float %d, 5.000000e+02, !dbg !2762 ; [#uses=1 type=i1] [debug line = 70:4]
  %tmp.61 = and i1 %tmp.59, %tmp.60, !dbg !2762   ; [#uses=1 type=i1] [debug line = 70:4]
  br i1 %tmp.61, label %9, label %._crit_edge5, !dbg !2762 ; [debug line = 70:4]

; <label>:9                                       ; preds = %8
  %x_norm = fdiv float %exp1, %d, !dbg !2763      ; [#uses=2 type=float] [debug line = 71:5]
  call void @llvm.dbg.value(metadata !{float %x_norm}, i64 0, metadata !2765), !dbg !2763 ; [debug line = 71:5] [debug variable = x_norm]
  %y_norm = fdiv float %exp2, %d, !dbg !2766      ; [#uses=2 type=float] [debug line = 72:5]
  call void @llvm.dbg.value(metadata !{float %y_norm}, i64 0, metadata !2767), !dbg !2766 ; [debug line = 72:5] [debug variable = y_norm]
  %d_to_int5 = bitcast float %d to i32            ; [#uses=2 type=i32]
  %tmp.62 = call i8 @_ssdm_op_PartSelect.i8.i32.i32.i32(i32 %d_to_int5, i32 23, i32 30) ; [#uses=1 type=i8]
  %tmp.63 = trunc i32 %d_to_int5 to i23           ; [#uses=1 type=i23]
  %notlhs3 = icmp ne i8 %tmp.62, -1               ; [#uses=1 type=i1]
  %notrhs4 = icmp eq i23 %tmp.63, 0               ; [#uses=1 type=i1]
  %tmp.64 = or i1 %notrhs4, %notlhs3              ; [#uses=1 type=i1]
  %tmp.65 = fcmp olt float %d, 1.000000e+00, !dbg !2768 ; [#uses=1 type=i1] [debug line = 74:5]
  %tmp.66 = and i1 %tmp.64, %tmp.65, !dbg !2768   ; [#uses=1 type=i1] [debug line = 74:5]
  br i1 %tmp.66, label %._crit_edge6, label %10, !dbg !2768 ; [debug line = 74:5]

; <label>:10                                      ; preds = %9
  %tmp.34 = fdiv float 1.000000e+00, %d, !dbg !2769 ; [#uses=2 type=float] [debug line = 78:6]
  %tmp.35 = fmul float %x_norm, %tmp.34, !dbg !2769 ; [#uses=1 type=float] [debug line = 78:6]
  %tmp.36 = fmul float %y_norm, %tmp.34, !dbg !2771 ; [#uses=1 type=float] [debug line = 79:6]
  br label %._crit_edge6

._crit_edge6:                                     ; preds = %10, %9
  %.pn = phi float [ %tmp.35, %10 ], [ %x_norm, %9 ] ; [#uses=1 type=float]
  %.pn1 = phi float [ %tmp.36, %10 ], [ %y_norm, %9 ] ; [#uses=1 type=float]
  %y_norm.1 = fmul float %.pn1, %g, !dbg !2772    ; [#uses=1 type=float] [debug line = 76:6]
  call void @llvm.dbg.value(metadata !{float %y_norm.1}, i64 0, metadata !2767), !dbg !2772 ; [debug line = 76:6] [debug variable = y_norm]
  %x_norm.1 = fmul float %.pn, %g, !dbg !2774     ; [#uses=1 type=float] [debug line = 75:6]
  call void @llvm.dbg.value(metadata !{float %x_norm.1}, i64 0, metadata !2765), !dbg !2774 ; [debug line = 75:6] [debug variable = x_norm]
  %tmp.37 = fadd float %tmp.23, %x_norm.1, !dbg !2775 ; [#uses=2 type=float] [debug line = 82:5]
  store float %tmp.37, float* %pvx, align 4, !dbg !2775 ; [debug line = 82:5]
  %tmp.38 = fadd float %tmp.22, %y_norm.1, !dbg !2776 ; [#uses=2 type=float] [debug line = 83:5]
  store float %tmp.38, float* %pvy, align 4, !dbg !2776 ; [debug line = 83:5]
  br label %._crit_edge5, !dbg !2777              ; [debug line = 84:4]

._crit_edge5:                                     ; preds = %._crit_edge6, %8
  %tmp.39 = phi float [ %tmp.38, %._crit_edge6 ], [ %tmp.22, %8 ] ; [#uses=1 type=float]
  %tmp.40 = phi float [ %tmp.37, %._crit_edge6 ], [ %tmp.23, %8 ] ; [#uses=1 type=float]
  %11 = call i32 (...)* @_ssdm_op_SpecRegionEnd([22 x i8]* @.str7, i32 %tmp.42) nounwind, !dbg !2778 ; [#uses=0 type=i32] [debug line = 85:3]
  call void @llvm.dbg.value(metadata !{i32 %j.1}, i64 0, metadata !2779), !dbg !2780 ; [debug line = 53:18] [debug variable = j]
  br label %7, !dbg !2780                         ; [debug line = 53:18]

; <label>:12                                      ; preds = %7
  %13 = call i32 (...)* @_ssdm_op_SpecRegionEnd([19 x i8]* @.str6, i32 %tmp.) nounwind, !dbg !2781 ; [#uses=0 type=i32] [debug line = 86:2]
  %i.1 = add i32 %i, 4, !dbg !2782                ; [#uses=1 type=i32] [debug line = 23:54]
  call void @llvm.dbg.value(metadata !{i32 %i.1}, i64 0, metadata !2783), !dbg !2782 ; [debug line = 23:54] [debug variable = i]
  br label %1, !dbg !2782                         ; [debug line = 23:54]

; <label>:14                                      ; preds = %1
  ret void, !dbg !2784                            ; [debug line = 87:1]
}

; [#uses=1]
declare float @llvm.sqrt.f32(float) nounwind readonly

; [#uses=22]
declare void @llvm.dbg.value(metadata, i64, metadata) nounwind readnone

; [#uses=1]
declare void @_ssdm_op_SpecTopModule(...)

; [#uses=2]
declare i32 @_ssdm_op_SpecRegionEnd(...)

; [#uses=2]
declare i32 @_ssdm_op_SpecRegionBegin(...)

; [#uses=2]
declare void @_ssdm_op_SpecPipeline(...) nounwind

; [#uses=2]
declare void @_ssdm_op_SpecLoopTripCount(...) nounwind

; [#uses=2]
declare void @_ssdm_op_SpecLoopName(...) nounwind

; [#uses=4]
declare void @_ssdm_op_SpecInterface(...) nounwind

; [#uses=3]
declare void @_ssdm_op_SpecBitsMap(...)

; [#uses=6]
declare i8 @_ssdm_op_PartSelect.i8.i32.i32.i32(i32, i32, i32) nounwind readnone

; [#uses=1]
declare void @_GLOBAL__I_a() nounwind

!hls.encrypted.func = !{}
!llvm.map.gv = !{!0, !7, !12}
!llvm.dbg.cu = !{!17}

!0 = metadata !{metadata !1, i32* @numberParticles}
!1 = metadata !{metadata !2}
!2 = metadata !{i32 0, i32 31, metadata !3}
!3 = metadata !{metadata !4}
!4 = metadata !{metadata !"numberParticles", metadata !5, metadata !"unsigned int", i32 0, i32 31}
!5 = metadata !{metadata !6}
!6 = metadata !{i32 0, i32 0, i32 1}
!7 = metadata !{metadata !8, i32* @numberAttractors}
!8 = metadata !{metadata !9}
!9 = metadata !{i32 0, i32 31, metadata !10}
!10 = metadata !{metadata !11}
!11 = metadata !{metadata !"numberAttractors", metadata !5, metadata !"unsigned int", i32 0, i32 31}
!12 = metadata !{metadata !13, [1 x i32]* @llvm.global_ctors.0}
!13 = metadata !{metadata !14}
!14 = metadata !{i32 0, i32 31, metadata !15}
!15 = metadata !{metadata !16}
!16 = metadata !{metadata !"llvm.global_ctors.0", metadata !5, metadata !"", i32 0, i32 31}
!17 = metadata !{i32 786449, i32 0, i32 4, metadata !"C:/Users/Matthew/Desktop/embs_open2/particle_sim_hls/solution1/.autopilot/db/toplevel.pragma.2.cpp", metadata !"C:\5CUsers\5CMatthew\5CDesktop\5Cembs_open2", metadata !"clang version 3.1 ", i1 true, i1 false, metadata !"", i32 0, null, null, null, metadata !18} ; [ DW_TAG_compile_unit ]
!18 = metadata !{metadata !19}
!19 = metadata !{metadata !20, metadata !24, metadata !25, metadata !874, metadata !875, metadata !876, metadata !877, metadata !878, metadata !879, metadata !880, metadata !881, metadata !882, metadata !883, metadata !884, metadata !885, metadata !886, metadata !887, metadata !888, metadata !889, metadata !890, metadata !891, metadata !893, metadata !894, metadata !895, metadata !896, metadata !908, metadata !909, metadata !910, metadata !911, metadata !912, metadata !913, metadata !922, metadata !923, metadata !924, metadata !926, metadata !927, metadata !928, metadata !929, metadata !930, metadata !931, metadata !932, metadata !933, metadata !935, metadata !946, metadata !948, metadata !950, metadata !951, metadata !952, metadata !953, metadata !954, metadata !956, metadata !959, metadata !960, metadata !961, metadata !962, metadata !964, metadata !965, metadata !1038, metadata !1049, metadata !1051, metadata !1057, metadata !1063, metadata !1064, metadata !1065, metadata !1066, metadata !1067, metadata !1068, metadata !1070, metadata !1076, metadata !1077, metadata !1078, metadata !1079, metadata !1080, metadata !1081, metadata !1082, metadata !1083, metadata !1084, metadata !1085, metadata !1086, metadata !1173, metadata !1174, metadata !1306, metadata !1313, metadata !1314, metadata !1315, metadata !1316, metadata !1317, metadata !1997, metadata !1999, metadata !2000, metadata !2001, metadata !2670, metadata !2672, metadata !2673}
!20 = metadata !{i32 786484, i32 0, null, metadata !"numberParticles", metadata !"numberParticles", metadata !"", metadata !21, i32 4, metadata !22, i32 0, i32 1, i32* @numberParticles} ; [ DW_TAG_variable ]
!21 = metadata !{i32 786473, metadata !"particle_sim_hls/toplevel.cpp", metadata !"C:\5CUsers\5CMatthew\5CDesktop\5Cembs_open2", null} ; [ DW_TAG_file_type ]
!22 = metadata !{i32 786454, null, metadata !"uint32", metadata !21, i32 18, i64 0, i64 0, i64 0, i32 0, metadata !23} ; [ DW_TAG_typedef ]
!23 = metadata !{i32 786468, null, metadata !"unsigned int", null, i32 0, i64 32, i64 32, i64 0, i32 0, i32 7} ; [ DW_TAG_base_type ]
!24 = metadata !{i32 786484, i32 0, null, metadata !"numberAttractors", metadata !"numberAttractors", metadata !"", metadata !21, i32 5, metadata !22, i32 0, i32 1, i32* @numberAttractors} ; [ DW_TAG_variable ]
!25 = metadata !{i32 786484, i32 0, metadata !26, metadata !"boolalpha", metadata !"boolalpha", metadata !"boolalpha", metadata !28, i32 265, metadata !873, i32 1, i32 1, i17 1} ; [ DW_TAG_variable ]
!26 = metadata !{i32 786434, metadata !27, metadata !"ios_base", metadata !28, i32 206, i64 1728, i64 64, i32 0, i32 0, null, metadata !29, i32 0, metadata !26, null} ; [ DW_TAG_class_type ]
!27 = metadata !{i32 786489, null, metadata !"std", metadata !28, i32 53} ; [ DW_TAG_namespace ]
!28 = metadata !{i32 786473, metadata !"D:/Xilinx/Vivado_HLS/2016.2/win64/tools/clang/bin\5C..\5Clib\5Cclang\5C3.1/../../../include/c++/4.5.2\5Cbits/ios_base.h", metadata !"C:\5CUsers\5CMatthew\5CDesktop\5Cembs_open2", null} ; [ DW_TAG_file_type ]
!29 = metadata !{metadata !30, metadata !36, metadata !42, metadata !43, metadata !66, metadata !75, metadata !76, metadata !107, metadata !118, metadata !122, metadata !123, metadata !125, metadata !805, metadata !809, metadata !812, metadata !815, metadata !819, metadata !820, metadata !825, metadata !828, metadata !829, metadata !832, metadata !835, metadata !838, metadata !841, metadata !842, metadata !843, metadata !846, metadata !849, metadata !852, metadata !855, metadata !856, metadata !860, metadata !864, metadata !865, metadata !866, metadata !870}
!30 = metadata !{i32 786445, metadata !28, metadata !"_vptr$ios_base", metadata !28, i32 0, i64 64, i64 0, i64 0, i32 0, metadata !31} ; [ DW_TAG_member ]
!31 = metadata !{i32 786447, null, metadata !"", null, i32 0, i64 64, i64 0, i64 0, i32 0, metadata !32} ; [ DW_TAG_pointer_type ]
!32 = metadata !{i32 786447, null, metadata !"__vtbl_ptr_type", null, i32 0, i64 64, i64 0, i64 0, i32 0, metadata !33} ; [ DW_TAG_pointer_type ]
!33 = metadata !{i32 786453, i32 0, metadata !"", i32 0, i32 0, i64 0, i64 0, i64 0, i32 0, null, metadata !34, i32 0, i32 0} ; [ DW_TAG_subroutine_type ]
!34 = metadata !{metadata !35}
!35 = metadata !{i32 786468, null, metadata !"int", null, i32 0, i64 32, i64 32, i64 0, i32 0, i32 5} ; [ DW_TAG_base_type ]
!36 = metadata !{i32 786445, metadata !26, metadata !"_M_precision", metadata !28, i32 459, i64 64, i64 64, i64 64, i32 2, metadata !37} ; [ DW_TAG_member ]
!37 = metadata !{i32 786454, metadata !38, metadata !"streamsize", metadata !28, i32 97, i64 0, i64 0, i64 0, i32 0, metadata !40} ; [ DW_TAG_typedef ]
!38 = metadata !{i32 786489, null, metadata !"std", metadata !39, i32 69} ; [ DW_TAG_namespace ]
!39 = metadata !{i32 786473, metadata !"D:/Xilinx/Vivado_HLS/2016.2/win64/tools/clang/bin\5C..\5Clib\5Cclang\5C3.1/../../../include/c++/4.5.2\5Cbits/postypes.h", metadata !"C:\5CUsers\5CMatthew\5CDesktop\5Cembs_open2", null} ; [ DW_TAG_file_type ]
!40 = metadata !{i32 786454, null, metadata !"ptrdiff_t", metadata !28, i32 31, i64 0, i64 0, i64 0, i32 0, metadata !41} ; [ DW_TAG_typedef ]
!41 = metadata !{i32 786468, null, metadata !"long long int", null, i32 0, i64 64, i64 64, i64 0, i32 0, i32 5} ; [ DW_TAG_base_type ]
!42 = metadata !{i32 786445, metadata !26, metadata !"_M_width", metadata !28, i32 460, i64 64, i64 64, i64 128, i32 2, metadata !37} ; [ DW_TAG_member ]
!43 = metadata !{i32 786445, metadata !26, metadata !"_M_flags", metadata !28, i32 461, i64 17, i64 32, i64 192, i32 2, metadata !44} ; [ DW_TAG_member ]
!44 = metadata !{i32 786454, metadata !26, metadata !"fmtflags", metadata !28, i32 262, i64 0, i64 0, i64 0, i32 0, metadata !45} ; [ DW_TAG_typedef ]
!45 = metadata !{i32 786436, metadata !27, metadata !"_Ios_Fmtflags", metadata !28, i32 59, i64 17, i64 32, i32 0, i32 0, null, metadata !46, i32 0, i32 0} ; [ DW_TAG_enumeration_type ]
!46 = metadata !{metadata !47, metadata !48, metadata !49, metadata !50, metadata !51, metadata !52, metadata !53, metadata !54, metadata !55, metadata !56, metadata !57, metadata !58, metadata !59, metadata !60, metadata !61, metadata !62, metadata !63, metadata !64, metadata !65}
!47 = metadata !{i32 786472, metadata !"_S_boolalpha", i64 1} ; [ DW_TAG_enumerator ]
!48 = metadata !{i32 786472, metadata !"_S_dec", i64 2} ; [ DW_TAG_enumerator ]
!49 = metadata !{i32 786472, metadata !"_S_fixed", i64 4} ; [ DW_TAG_enumerator ]
!50 = metadata !{i32 786472, metadata !"_S_hex", i64 8} ; [ DW_TAG_enumerator ]
!51 = metadata !{i32 786472, metadata !"_S_internal", i64 16} ; [ DW_TAG_enumerator ]
!52 = metadata !{i32 786472, metadata !"_S_left", i64 32} ; [ DW_TAG_enumerator ]
!53 = metadata !{i32 786472, metadata !"_S_oct", i64 64} ; [ DW_TAG_enumerator ]
!54 = metadata !{i32 786472, metadata !"_S_right", i64 128} ; [ DW_TAG_enumerator ]
!55 = metadata !{i32 786472, metadata !"_S_scientific", i64 256} ; [ DW_TAG_enumerator ]
!56 = metadata !{i32 786472, metadata !"_S_showbase", i64 512} ; [ DW_TAG_enumerator ]
!57 = metadata !{i32 786472, metadata !"_S_showpoint", i64 1024} ; [ DW_TAG_enumerator ]
!58 = metadata !{i32 786472, metadata !"_S_showpos", i64 2048} ; [ DW_TAG_enumerator ]
!59 = metadata !{i32 786472, metadata !"_S_skipws", i64 4096} ; [ DW_TAG_enumerator ]
!60 = metadata !{i32 786472, metadata !"_S_unitbuf", i64 8192} ; [ DW_TAG_enumerator ]
!61 = metadata !{i32 786472, metadata !"_S_uppercase", i64 16384} ; [ DW_TAG_enumerator ]
!62 = metadata !{i32 786472, metadata !"_S_adjustfield", i64 176} ; [ DW_TAG_enumerator ]
!63 = metadata !{i32 786472, metadata !"_S_basefield", i64 74} ; [ DW_TAG_enumerator ]
!64 = metadata !{i32 786472, metadata !"_S_floatfield", i64 260} ; [ DW_TAG_enumerator ]
!65 = metadata !{i32 786472, metadata !"_S_ios_fmtflags_end", i64 65536} ; [ DW_TAG_enumerator ]
!66 = metadata !{i32 786445, metadata !26, metadata !"_M_exception", metadata !28, i32 462, i64 17, i64 32, i64 224, i32 2, metadata !67} ; [ DW_TAG_member ]
!67 = metadata !{i32 786454, metadata !26, metadata !"iostate", metadata !28, i32 337, i64 0, i64 0, i64 0, i32 0, metadata !68} ; [ DW_TAG_typedef ]
!68 = metadata !{i32 786436, metadata !27, metadata !"_Ios_Iostate", metadata !28, i32 151, i64 17, i64 32, i32 0, i32 0, null, metadata !69, i32 0, i32 0} ; [ DW_TAG_enumeration_type ]
!69 = metadata !{metadata !70, metadata !71, metadata !72, metadata !73, metadata !74}
!70 = metadata !{i32 786472, metadata !"_S_goodbit", i64 0} ; [ DW_TAG_enumerator ]
!71 = metadata !{i32 786472, metadata !"_S_badbit", i64 1} ; [ DW_TAG_enumerator ]
!72 = metadata !{i32 786472, metadata !"_S_eofbit", i64 2} ; [ DW_TAG_enumerator ]
!73 = metadata !{i32 786472, metadata !"_S_failbit", i64 4} ; [ DW_TAG_enumerator ]
!74 = metadata !{i32 786472, metadata !"_S_ios_iostate_end", i64 65536} ; [ DW_TAG_enumerator ]
!75 = metadata !{i32 786445, metadata !26, metadata !"_M_streambuf_state", metadata !28, i32 463, i64 17, i64 32, i64 256, i32 2, metadata !67} ; [ DW_TAG_member ]
!76 = metadata !{i32 786445, metadata !26, metadata !"_M_callbacks", metadata !28, i32 488, i64 64, i64 64, i64 320, i32 2, metadata !77} ; [ DW_TAG_member ]
!77 = metadata !{i32 786447, null, metadata !"", null, i32 0, i64 64, i64 64, i64 0, i32 0, metadata !78} ; [ DW_TAG_pointer_type ]
!78 = metadata !{i32 786434, metadata !26, metadata !"_Callback_list", metadata !28, i32 467, i64 192, i64 64, i32 0, i32 0, null, metadata !79, i32 0, null, null} ; [ DW_TAG_class_type ]
!79 = metadata !{metadata !80, metadata !81, metadata !92, metadata !93, metadata !95, metadata !101, metadata !104}
!80 = metadata !{i32 786445, metadata !78, metadata !"_M_next", metadata !28, i32 470, i64 64, i64 64, i64 0, i32 0, metadata !77} ; [ DW_TAG_member ]
!81 = metadata !{i32 786445, metadata !78, metadata !"_M_fn", metadata !28, i32 471, i64 64, i64 64, i64 64, i32 0, metadata !82} ; [ DW_TAG_member ]
!82 = metadata !{i32 786454, metadata !26, metadata !"event_callback", metadata !28, i32 443, i64 0, i64 0, i64 0, i32 0, metadata !83} ; [ DW_TAG_typedef ]
!83 = metadata !{i32 786447, null, metadata !"", null, i32 0, i64 64, i64 64, i64 0, i32 0, metadata !84} ; [ DW_TAG_pointer_type ]
!84 = metadata !{i32 786453, i32 0, metadata !"", i32 0, i32 0, i64 0, i64 0, i64 0, i32 0, null, metadata !85, i32 0, i32 0} ; [ DW_TAG_subroutine_type ]
!85 = metadata !{null, metadata !86, metadata !91, metadata !35}
!86 = metadata !{i32 786436, metadata !26, metadata !"event", metadata !28, i32 426, i64 2, i64 2, i32 0, i32 0, null, metadata !87, i32 0, i32 0} ; [ DW_TAG_enumeration_type ]
!87 = metadata !{metadata !88, metadata !89, metadata !90}
!88 = metadata !{i32 786472, metadata !"erase_event", i64 0} ; [ DW_TAG_enumerator ]
!89 = metadata !{i32 786472, metadata !"imbue_event", i64 1} ; [ DW_TAG_enumerator ]
!90 = metadata !{i32 786472, metadata !"copyfmt_event", i64 2} ; [ DW_TAG_enumerator ]
!91 = metadata !{i32 786448, null, null, null, i32 0, i64 0, i64 0, i64 0, i32 0, metadata !26} ; [ DW_TAG_reference_type ]
!92 = metadata !{i32 786445, metadata !78, metadata !"_M_index", metadata !28, i32 472, i64 32, i64 32, i64 128, i32 0, metadata !35} ; [ DW_TAG_member ]
!93 = metadata !{i32 786445, metadata !78, metadata !"_M_refcount", metadata !28, i32 473, i64 32, i64 32, i64 160, i32 0, metadata !94} ; [ DW_TAG_member ]
!94 = metadata !{i32 786454, null, metadata !"_Atomic_word", metadata !28, i32 32, i64 0, i64 0, i64 0, i32 0, metadata !35} ; [ DW_TAG_typedef ]
!95 = metadata !{i32 786478, i32 0, metadata !78, metadata !"_Callback_list", metadata !"_Callback_list", metadata !"", metadata !28, i32 475, metadata !96, i1 false, i1 false, i32 0, i32 0, null, i32 256, i1 false, null, null, i32 0, metadata !99, i32 475} ; [ DW_TAG_subprogram ]
!96 = metadata !{i32 786453, i32 0, metadata !"", i32 0, i32 0, i64 0, i64 0, i64 0, i32 0, null, metadata !97, i32 0, i32 0} ; [ DW_TAG_subroutine_type ]
!97 = metadata !{null, metadata !98, metadata !82, metadata !35, metadata !77}
!98 = metadata !{i32 786447, i32 0, metadata !"", i32 0, i32 0, i64 64, i64 64, i64 0, i32 64, metadata !78} ; [ DW_TAG_pointer_type ]
!99 = metadata !{metadata !100}
!100 = metadata !{i32 786468}                     ; [ DW_TAG_base_type ]
!101 = metadata !{i32 786478, i32 0, metadata !78, metadata !"_M_add_reference", metadata !"_M_add_reference", metadata !"_ZNSt8ios_base14_Callback_list16_M_add_referenceEv", metadata !28, i32 480, metadata !102, i1 false, i1 false, i32 0, i32 0, null, i32 256, i1 false, null, null, i32 0, metadata !99, i32 480} ; [ DW_TAG_subprogram ]
!102 = metadata !{i32 786453, i32 0, metadata !"", i32 0, i32 0, i64 0, i64 0, i64 0, i32 0, null, metadata !103, i32 0, i32 0} ; [ DW_TAG_subroutine_type ]
!103 = metadata !{null, metadata !98}
!104 = metadata !{i32 786478, i32 0, metadata !78, metadata !"_M_remove_reference", metadata !"_M_remove_reference", metadata !"_ZNSt8ios_base14_Callback_list19_M_remove_referenceEv", metadata !28, i32 484, metadata !105, i1 false, i1 false, i32 0, i32 0, null, i32 256, i1 false, null, null, i32 0, metadata !99, i32 484} ; [ DW_TAG_subprogram ]
!105 = metadata !{i32 786453, i32 0, metadata !"", i32 0, i32 0, i64 0, i64 0, i64 0, i32 0, null, metadata !106, i32 0, i32 0} ; [ DW_TAG_subroutine_type ]
!106 = metadata !{metadata !35, metadata !98}
!107 = metadata !{i32 786445, metadata !26, metadata !"_M_word_zero", metadata !28, i32 505, i64 128, i64 64, i64 384, i32 2, metadata !108} ; [ DW_TAG_member ]
!108 = metadata !{i32 786434, metadata !26, metadata !"_Words", metadata !28, i32 497, i64 128, i64 64, i32 0, i32 0, null, metadata !109, i32 0, null, null} ; [ DW_TAG_class_type ]
!109 = metadata !{metadata !110, metadata !112, metadata !114}
!110 = metadata !{i32 786445, metadata !108, metadata !"_M_pword", metadata !28, i32 499, i64 64, i64 64, i64 0, i32 0, metadata !111} ; [ DW_TAG_member ]
!111 = metadata !{i32 786447, null, metadata !"", null, i32 0, i64 64, i64 64, i64 0, i32 0, null} ; [ DW_TAG_pointer_type ]
!112 = metadata !{i32 786445, metadata !108, metadata !"_M_iword", metadata !28, i32 500, i64 32, i64 32, i64 64, i32 0, metadata !113} ; [ DW_TAG_member ]
!113 = metadata !{i32 786468, null, metadata !"long int", null, i32 0, i64 32, i64 32, i64 0, i32 0, i32 5} ; [ DW_TAG_base_type ]
!114 = metadata !{i32 786478, i32 0, metadata !108, metadata !"_Words", metadata !"_Words", metadata !"", metadata !28, i32 501, metadata !115, i1 false, i1 false, i32 0, i32 0, null, i32 256, i1 false, null, null, i32 0, metadata !99, i32 501} ; [ DW_TAG_subprogram ]
!115 = metadata !{i32 786453, i32 0, metadata !"", i32 0, i32 0, i64 0, i64 0, i64 0, i32 0, null, metadata !116, i32 0, i32 0} ; [ DW_TAG_subroutine_type ]
!116 = metadata !{null, metadata !117}
!117 = metadata !{i32 786447, i32 0, metadata !"", i32 0, i32 0, i64 64, i64 64, i64 0, i32 64, metadata !108} ; [ DW_TAG_pointer_type ]
!118 = metadata !{i32 786445, metadata !26, metadata !"_M_local_word", metadata !28, i32 510, i64 1024, i64 64, i64 512, i32 2, metadata !119} ; [ DW_TAG_member ]
!119 = metadata !{i32 786433, null, metadata !"", null, i32 0, i64 1024, i64 64, i32 0, i32 0, metadata !108, metadata !120, i32 0, i32 0} ; [ DW_TAG_array_type ]
!120 = metadata !{metadata !121}
!121 = metadata !{i32 786465, i64 0, i64 7}       ; [ DW_TAG_subrange_type ]
!122 = metadata !{i32 786445, metadata !26, metadata !"_M_word_size", metadata !28, i32 513, i64 32, i64 32, i64 1536, i32 2, metadata !35} ; [ DW_TAG_member ]
!123 = metadata !{i32 786445, metadata !26, metadata !"_M_word", metadata !28, i32 514, i64 64, i64 64, i64 1600, i32 2, metadata !124} ; [ DW_TAG_member ]
!124 = metadata !{i32 786447, null, metadata !"", null, i32 0, i64 64, i64 64, i64 0, i32 0, metadata !108} ; [ DW_TAG_pointer_type ]
!125 = metadata !{i32 786445, metadata !26, metadata !"_M_ios_locale", metadata !28, i32 520, i64 64, i64 64, i64 1664, i32 2, metadata !126} ; [ DW_TAG_member ]
!126 = metadata !{i32 786434, metadata !127, metadata !"locale", metadata !128, i32 61, i64 64, i64 64, i32 0, i32 0, null, metadata !129, i32 0, null, null} ; [ DW_TAG_class_type ]
!127 = metadata !{i32 786489, null, metadata !"std", metadata !128, i32 44} ; [ DW_TAG_namespace ]
!128 = metadata !{i32 786473, metadata !"D:/Xilinx/Vivado_HLS/2016.2/win64/tools/clang/bin\5C..\5Clib\5Cclang\5C3.1/../../../include/c++/4.5.2\5Cbits/locale_classes.h", metadata !"C:\5CUsers\5CMatthew\5CDesktop\5Cembs_open2", null} ; [ DW_TAG_file_type ]
!129 = metadata !{metadata !130, metadata !267, metadata !271, metadata !276, metadata !279, metadata !282, metadata !285, metadata !286, metadata !289, metadata !784, metadata !787, metadata !788, metadata !791, metadata !794, metadata !797, metadata !798, metadata !799, metadata !802, metadata !803, metadata !804}
!130 = metadata !{i32 786445, metadata !126, metadata !"_M_impl", metadata !128, i32 278, i64 64, i64 64, i64 0, i32 1, metadata !131} ; [ DW_TAG_member ]
!131 = metadata !{i32 786447, null, metadata !"", null, i32 0, i64 64, i64 64, i64 0, i32 0, metadata !132} ; [ DW_TAG_pointer_type ]
!132 = metadata !{i32 786434, metadata !126, metadata !"_Impl", metadata !128, i32 470, i64 320, i64 64, i32 0, i32 0, null, metadata !133, i32 0, null, null} ; [ DW_TAG_class_type ]
!133 = metadata !{metadata !134, metadata !135, metadata !196, metadata !197, metadata !198, metadata !201, metadata !205, metadata !206, metadata !211, metadata !214, metadata !217, metadata !218, metadata !221, metadata !222, metadata !226, metadata !231, metadata !256, metadata !259, metadata !262, metadata !265, metadata !266}
!134 = metadata !{i32 786445, metadata !132, metadata !"_M_refcount", metadata !128, i32 490, i64 32, i64 32, i64 0, i32 1, metadata !94} ; [ DW_TAG_member ]
!135 = metadata !{i32 786445, metadata !132, metadata !"_M_facets", metadata !128, i32 491, i64 64, i64 64, i64 64, i32 1, metadata !136} ; [ DW_TAG_member ]
!136 = metadata !{i32 786447, null, metadata !"", null, i32 0, i64 64, i64 64, i64 0, i32 0, metadata !137} ; [ DW_TAG_pointer_type ]
!137 = metadata !{i32 786447, null, metadata !"", null, i32 0, i64 64, i64 64, i64 0, i32 0, metadata !138} ; [ DW_TAG_pointer_type ]
!138 = metadata !{i32 786470, null, metadata !"", null, i32 0, i64 0, i64 0, i64 0, i32 0, metadata !139} ; [ DW_TAG_const_type ]
!139 = metadata !{i32 786434, metadata !126, metadata !"facet", metadata !128, i32 336, i64 128, i64 64, i32 0, i32 0, null, metadata !140, i32 0, metadata !139, null} ; [ DW_TAG_class_type ]
!140 = metadata !{metadata !141, metadata !142, metadata !143, metadata !146, metadata !152, metadata !155, metadata !166, metadata !169, metadata !172, metadata !175, metadata !178, metadata !181, metadata !185, metadata !186, metadata !190, metadata !194, metadata !195}
!141 = metadata !{i32 786445, metadata !128, metadata !"_vptr$facet", metadata !128, i32 0, i64 64, i64 0, i64 0, i32 0, metadata !31} ; [ DW_TAG_member ]
!142 = metadata !{i32 786445, metadata !139, metadata !"_M_refcount", metadata !128, i32 342, i64 32, i64 32, i64 64, i32 1, metadata !94} ; [ DW_TAG_member ]
!143 = metadata !{i32 786478, i32 0, metadata !139, metadata !"_S_initialize_once", metadata !"_S_initialize_once", metadata !"_ZNSt6locale5facet18_S_initialize_onceEv", metadata !128, i32 355, metadata !144, i1 false, i1 false, i32 0, i32 0, null, i32 257, i1 false, null, null, i32 0, metadata !99, i32 355} ; [ DW_TAG_subprogram ]
!144 = metadata !{i32 786453, i32 0, metadata !"", i32 0, i32 0, i64 0, i64 0, i64 0, i32 0, null, metadata !145, i32 0, i32 0} ; [ DW_TAG_subroutine_type ]
!145 = metadata !{null}
!146 = metadata !{i32 786478, i32 0, metadata !139, metadata !"facet", metadata !"facet", metadata !"", metadata !128, i32 368, metadata !147, i1 false, i1 false, i32 0, i32 0, null, i32 386, i1 false, null, null, i32 0, metadata !99, i32 368} ; [ DW_TAG_subprogram ]
!147 = metadata !{i32 786453, i32 0, metadata !"", i32 0, i32 0, i64 0, i64 0, i64 0, i32 0, null, metadata !148, i32 0, i32 0} ; [ DW_TAG_subroutine_type ]
!148 = metadata !{null, metadata !149, metadata !150}
!149 = metadata !{i32 786447, i32 0, metadata !"", i32 0, i32 0, i64 64, i64 64, i64 0, i32 64, metadata !139} ; [ DW_TAG_pointer_type ]
!150 = metadata !{i32 786454, null, metadata !"size_t", metadata !128, i32 35, i64 0, i64 0, i64 0, i32 0, metadata !151} ; [ DW_TAG_typedef ]
!151 = metadata !{i32 786468, null, metadata !"long long unsigned int", null, i32 0, i64 64, i64 64, i64 0, i32 0, i32 7} ; [ DW_TAG_base_type ]
!152 = metadata !{i32 786478, i32 0, metadata !139, metadata !"~facet", metadata !"~facet", metadata !"", metadata !128, i32 373, metadata !153, i1 false, i1 false, i32 1, i32 0, metadata !139, i32 258, i1 false, null, null, i32 0, metadata !99, i32 373} ; [ DW_TAG_subprogram ]
!153 = metadata !{i32 786453, i32 0, metadata !"", i32 0, i32 0, i64 0, i64 0, i64 0, i32 0, null, metadata !154, i32 0, i32 0} ; [ DW_TAG_subroutine_type ]
!154 = metadata !{null, metadata !149}
!155 = metadata !{i32 786478, i32 0, metadata !139, metadata !"_S_create_c_locale", metadata !"_S_create_c_locale", metadata !"_ZNSt6locale5facet18_S_create_c_localeERPiPKcS1_", metadata !128, i32 376, metadata !156, i1 false, i1 false, i32 0, i32 0, null, i32 258, i1 false, null, null, i32 0, metadata !99, i32 376} ; [ DW_TAG_subprogram ]
!156 = metadata !{i32 786453, i32 0, metadata !"", i32 0, i32 0, i64 0, i64 0, i64 0, i32 0, null, metadata !157, i32 0, i32 0} ; [ DW_TAG_subroutine_type ]
!157 = metadata !{null, metadata !158, metadata !163, metadata !159}
!158 = metadata !{i32 786448, null, null, null, i32 0, i64 0, i64 0, i64 0, i32 0, metadata !159} ; [ DW_TAG_reference_type ]
!159 = metadata !{i32 786454, metadata !160, metadata !"__c_locale", metadata !128, i32 48, i64 0, i64 0, i64 0, i32 0, metadata !162} ; [ DW_TAG_typedef ]
!160 = metadata !{i32 786489, null, metadata !"std", metadata !161, i32 46} ; [ DW_TAG_namespace ]
!161 = metadata !{i32 786473, metadata !"D:/Xilinx/Vivado_HLS/2016.2/win64/tools/clang/bin\5C..\5Clib\5Cclang\5C3.1/../../../include/c++/4.5.2/x86_64-w64-mingw32\5Cbits/c++locale.h", metadata !"C:\5CUsers\5CMatthew\5CDesktop\5Cembs_open2", null} ; [ DW_TAG_file_type ]
!162 = metadata !{i32 786447, null, metadata !"", null, i32 0, i64 64, i64 64, i64 0, i32 0, metadata !35} ; [ DW_TAG_pointer_type ]
!163 = metadata !{i32 786447, null, metadata !"", null, i32 0, i64 64, i64 64, i64 0, i32 0, metadata !164} ; [ DW_TAG_pointer_type ]
!164 = metadata !{i32 786470, null, metadata !"", null, i32 0, i64 0, i64 0, i64 0, i32 0, metadata !165} ; [ DW_TAG_const_type ]
!165 = metadata !{i32 786468, null, metadata !"char", null, i32 0, i64 8, i64 8, i64 0, i32 0, i32 6} ; [ DW_TAG_base_type ]
!166 = metadata !{i32 786478, i32 0, metadata !139, metadata !"_S_clone_c_locale", metadata !"_S_clone_c_locale", metadata !"_ZNSt6locale5facet17_S_clone_c_localeERPi", metadata !128, i32 380, metadata !167, i1 false, i1 false, i32 0, i32 0, null, i32 258, i1 false, null, null, i32 0, metadata !99, i32 380} ; [ DW_TAG_subprogram ]
!167 = metadata !{i32 786453, i32 0, metadata !"", i32 0, i32 0, i64 0, i64 0, i64 0, i32 0, null, metadata !168, i32 0, i32 0} ; [ DW_TAG_subroutine_type ]
!168 = metadata !{metadata !159, metadata !158}
!169 = metadata !{i32 786478, i32 0, metadata !139, metadata !"_S_destroy_c_locale", metadata !"_S_destroy_c_locale", metadata !"_ZNSt6locale5facet19_S_destroy_c_localeERPi", metadata !128, i32 383, metadata !170, i1 false, i1 false, i32 0, i32 0, null, i32 258, i1 false, null, null, i32 0, metadata !99, i32 383} ; [ DW_TAG_subprogram ]
!170 = metadata !{i32 786453, i32 0, metadata !"", i32 0, i32 0, i64 0, i64 0, i64 0, i32 0, null, metadata !171, i32 0, i32 0} ; [ DW_TAG_subroutine_type ]
!171 = metadata !{null, metadata !158}
!172 = metadata !{i32 786478, i32 0, metadata !139, metadata !"_S_lc_ctype_c_locale", metadata !"_S_lc_ctype_c_locale", metadata !"_ZNSt6locale5facet20_S_lc_ctype_c_localeEPiPKc", metadata !128, i32 386, metadata !173, i1 false, i1 false, i32 0, i32 0, null, i32 258, i1 false, null, null, i32 0, metadata !99, i32 386} ; [ DW_TAG_subprogram ]
!173 = metadata !{i32 786453, i32 0, metadata !"", i32 0, i32 0, i64 0, i64 0, i64 0, i32 0, null, metadata !174, i32 0, i32 0} ; [ DW_TAG_subroutine_type ]
!174 = metadata !{metadata !159, metadata !159, metadata !163}
!175 = metadata !{i32 786478, i32 0, metadata !139, metadata !"_S_get_c_locale", metadata !"_S_get_c_locale", metadata !"_ZNSt6locale5facet15_S_get_c_localeEv", metadata !128, i32 391, metadata !176, i1 false, i1 false, i32 0, i32 0, null, i32 258, i1 false, null, null, i32 0, metadata !99, i32 391} ; [ DW_TAG_subprogram ]
!176 = metadata !{i32 786453, i32 0, metadata !"", i32 0, i32 0, i64 0, i64 0, i64 0, i32 0, null, metadata !177, i32 0, i32 0} ; [ DW_TAG_subroutine_type ]
!177 = metadata !{metadata !159}
!178 = metadata !{i32 786478, i32 0, metadata !139, metadata !"_S_get_c_name", metadata !"_S_get_c_name", metadata !"_ZNSt6locale5facet13_S_get_c_nameEv", metadata !128, i32 394, metadata !179, i1 false, i1 false, i32 0, i32 0, null, i32 258, i1 false, null, null, i32 0, metadata !99, i32 394} ; [ DW_TAG_subprogram ]
!179 = metadata !{i32 786453, i32 0, metadata !"", i32 0, i32 0, i64 0, i64 0, i64 0, i32 0, null, metadata !180, i32 0, i32 0} ; [ DW_TAG_subroutine_type ]
!180 = metadata !{metadata !163}
!181 = metadata !{i32 786478, i32 0, metadata !139, metadata !"_M_add_reference", metadata !"_M_add_reference", metadata !"_ZNKSt6locale5facet16_M_add_referenceEv", metadata !128, i32 398, metadata !182, i1 false, i1 false, i32 0, i32 0, null, i32 257, i1 false, null, null, i32 0, metadata !99, i32 398} ; [ DW_TAG_subprogram ]
!182 = metadata !{i32 786453, i32 0, metadata !"", i32 0, i32 0, i64 0, i64 0, i64 0, i32 0, null, metadata !183, i32 0, i32 0} ; [ DW_TAG_subroutine_type ]
!183 = metadata !{null, metadata !184}
!184 = metadata !{i32 786447, i32 0, metadata !"", i32 0, i32 0, i64 64, i64 64, i64 0, i32 64, metadata !138} ; [ DW_TAG_pointer_type ]
!185 = metadata !{i32 786478, i32 0, metadata !139, metadata !"_M_remove_reference", metadata !"_M_remove_reference", metadata !"_ZNKSt6locale5facet19_M_remove_referenceEv", metadata !128, i32 402, metadata !182, i1 false, i1 false, i32 0, i32 0, null, i32 257, i1 false, null, null, i32 0, metadata !99, i32 402} ; [ DW_TAG_subprogram ]
!186 = metadata !{i32 786478, i32 0, metadata !139, metadata !"facet", metadata !"facet", metadata !"", metadata !128, i32 413, metadata !187, i1 false, i1 false, i32 0, i32 0, null, i32 257, i1 false, null, null, i32 0, metadata !99, i32 413} ; [ DW_TAG_subprogram ]
!187 = metadata !{i32 786453, i32 0, metadata !"", i32 0, i32 0, i64 0, i64 0, i64 0, i32 0, null, metadata !188, i32 0, i32 0} ; [ DW_TAG_subroutine_type ]
!188 = metadata !{null, metadata !149, metadata !189}
!189 = metadata !{i32 786448, null, null, null, i32 0, i64 0, i64 0, i64 0, i32 0, metadata !138} ; [ DW_TAG_reference_type ]
!190 = metadata !{i32 786478, i32 0, metadata !139, metadata !"operator=", metadata !"operator=", metadata !"_ZNSt6locale5facetaSERKS0_", metadata !128, i32 416, metadata !191, i1 false, i1 false, i32 0, i32 0, null, i32 257, i1 false, null, null, i32 0, metadata !99, i32 416} ; [ DW_TAG_subprogram ]
!191 = metadata !{i32 786453, i32 0, metadata !"", i32 0, i32 0, i64 0, i64 0, i64 0, i32 0, null, metadata !192, i32 0, i32 0} ; [ DW_TAG_subroutine_type ]
!192 = metadata !{metadata !193, metadata !149, metadata !189}
!193 = metadata !{i32 786448, null, null, null, i32 0, i64 0, i64 0, i64 0, i32 0, metadata !139} ; [ DW_TAG_reference_type ]
!194 = metadata !{i32 786474, metadata !139, null, metadata !128, i32 0, i64 0, i64 0, i64 0, i32 0, metadata !132} ; [ DW_TAG_friend ]
!195 = metadata !{i32 786474, metadata !139, null, metadata !128, i32 0, i64 0, i64 0, i64 0, i32 0, metadata !126} ; [ DW_TAG_friend ]
!196 = metadata !{i32 786445, metadata !132, metadata !"_M_facets_size", metadata !128, i32 492, i64 64, i64 64, i64 128, i32 1, metadata !150} ; [ DW_TAG_member ]
!197 = metadata !{i32 786445, metadata !132, metadata !"_M_caches", metadata !128, i32 493, i64 64, i64 64, i64 192, i32 1, metadata !136} ; [ DW_TAG_member ]
!198 = metadata !{i32 786445, metadata !132, metadata !"_M_names", metadata !128, i32 494, i64 64, i64 64, i64 256, i32 1, metadata !199} ; [ DW_TAG_member ]
!199 = metadata !{i32 786447, null, metadata !"", null, i32 0, i64 64, i64 64, i64 0, i32 0, metadata !200} ; [ DW_TAG_pointer_type ]
!200 = metadata !{i32 786447, null, metadata !"", null, i32 0, i64 64, i64 64, i64 0, i32 0, metadata !165} ; [ DW_TAG_pointer_type ]
!201 = metadata !{i32 786478, i32 0, metadata !132, metadata !"_M_add_reference", metadata !"_M_add_reference", metadata !"_ZNSt6locale5_Impl16_M_add_referenceEv", metadata !128, i32 504, metadata !202, i1 false, i1 false, i32 0, i32 0, null, i32 257, i1 false, null, null, i32 0, metadata !99, i32 504} ; [ DW_TAG_subprogram ]
!202 = metadata !{i32 786453, i32 0, metadata !"", i32 0, i32 0, i64 0, i64 0, i64 0, i32 0, null, metadata !203, i32 0, i32 0} ; [ DW_TAG_subroutine_type ]
!203 = metadata !{null, metadata !204}
!204 = metadata !{i32 786447, i32 0, metadata !"", i32 0, i32 0, i64 64, i64 64, i64 0, i32 64, metadata !132} ; [ DW_TAG_pointer_type ]
!205 = metadata !{i32 786478, i32 0, metadata !132, metadata !"_M_remove_reference", metadata !"_M_remove_reference", metadata !"_ZNSt6locale5_Impl19_M_remove_referenceEv", metadata !128, i32 508, metadata !202, i1 false, i1 false, i32 0, i32 0, null, i32 257, i1 false, null, null, i32 0, metadata !99, i32 508} ; [ DW_TAG_subprogram ]
!206 = metadata !{i32 786478, i32 0, metadata !132, metadata !"_Impl", metadata !"_Impl", metadata !"", metadata !128, i32 519, metadata !207, i1 false, i1 false, i32 0, i32 0, null, i32 257, i1 false, null, null, i32 0, metadata !99, i32 519} ; [ DW_TAG_subprogram ]
!207 = metadata !{i32 786453, i32 0, metadata !"", i32 0, i32 0, i64 0, i64 0, i64 0, i32 0, null, metadata !208, i32 0, i32 0} ; [ DW_TAG_subroutine_type ]
!208 = metadata !{null, metadata !204, metadata !209, metadata !150}
!209 = metadata !{i32 786448, null, null, null, i32 0, i64 0, i64 0, i64 0, i32 0, metadata !210} ; [ DW_TAG_reference_type ]
!210 = metadata !{i32 786470, null, metadata !"", null, i32 0, i64 0, i64 0, i64 0, i32 0, metadata !132} ; [ DW_TAG_const_type ]
!211 = metadata !{i32 786478, i32 0, metadata !132, metadata !"_Impl", metadata !"_Impl", metadata !"", metadata !128, i32 520, metadata !212, i1 false, i1 false, i32 0, i32 0, null, i32 257, i1 false, null, null, i32 0, metadata !99, i32 520} ; [ DW_TAG_subprogram ]
!212 = metadata !{i32 786453, i32 0, metadata !"", i32 0, i32 0, i64 0, i64 0, i64 0, i32 0, null, metadata !213, i32 0, i32 0} ; [ DW_TAG_subroutine_type ]
!213 = metadata !{null, metadata !204, metadata !163, metadata !150}
!214 = metadata !{i32 786478, i32 0, metadata !132, metadata !"_Impl", metadata !"_Impl", metadata !"", metadata !128, i32 521, metadata !215, i1 false, i1 false, i32 0, i32 0, null, i32 257, i1 false, null, null, i32 0, metadata !99, i32 521} ; [ DW_TAG_subprogram ]
!215 = metadata !{i32 786453, i32 0, metadata !"", i32 0, i32 0, i64 0, i64 0, i64 0, i32 0, null, metadata !216, i32 0, i32 0} ; [ DW_TAG_subroutine_type ]
!216 = metadata !{null, metadata !204, metadata !150}
!217 = metadata !{i32 786478, i32 0, metadata !132, metadata !"~_Impl", metadata !"~_Impl", metadata !"", metadata !128, i32 523, metadata !202, i1 false, i1 false, i32 0, i32 0, null, i32 257, i1 false, null, null, i32 0, metadata !99, i32 523} ; [ DW_TAG_subprogram ]
!218 = metadata !{i32 786478, i32 0, metadata !132, metadata !"_Impl", metadata !"_Impl", metadata !"", metadata !128, i32 525, metadata !219, i1 false, i1 false, i32 0, i32 0, null, i32 257, i1 false, null, null, i32 0, metadata !99, i32 525} ; [ DW_TAG_subprogram ]
!219 = metadata !{i32 786453, i32 0, metadata !"", i32 0, i32 0, i64 0, i64 0, i64 0, i32 0, null, metadata !220, i32 0, i32 0} ; [ DW_TAG_subroutine_type ]
!220 = metadata !{null, metadata !204, metadata !209}
!221 = metadata !{i32 786478, i32 0, metadata !132, metadata !"operator=", metadata !"operator=", metadata !"_ZNSt6locale5_ImplaSERKS0_", metadata !128, i32 528, metadata !219, i1 false, i1 false, i32 0, i32 0, null, i32 257, i1 false, null, null, i32 0, metadata !99, i32 528} ; [ DW_TAG_subprogram ]
!222 = metadata !{i32 786478, i32 0, metadata !132, metadata !"_M_check_same_name", metadata !"_M_check_same_name", metadata !"_ZNSt6locale5_Impl18_M_check_same_nameEv", metadata !128, i32 531, metadata !223, i1 false, i1 false, i32 0, i32 0, null, i32 257, i1 false, null, null, i32 0, metadata !99, i32 531} ; [ DW_TAG_subprogram ]
!223 = metadata !{i32 786453, i32 0, metadata !"", i32 0, i32 0, i64 0, i64 0, i64 0, i32 0, null, metadata !224, i32 0, i32 0} ; [ DW_TAG_subroutine_type ]
!224 = metadata !{metadata !225, metadata !204}
!225 = metadata !{i32 786468, null, metadata !"bool", null, i32 0, i64 8, i64 8, i64 0, i32 0, i32 2} ; [ DW_TAG_base_type ]
!226 = metadata !{i32 786478, i32 0, metadata !132, metadata !"_M_replace_categories", metadata !"_M_replace_categories", metadata !"_ZNSt6locale5_Impl21_M_replace_categoriesEPKS0_i", metadata !128, i32 542, metadata !227, i1 false, i1 false, i32 0, i32 0, null, i32 257, i1 false, null, null, i32 0, metadata !99, i32 542} ; [ DW_TAG_subprogram ]
!227 = metadata !{i32 786453, i32 0, metadata !"", i32 0, i32 0, i64 0, i64 0, i64 0, i32 0, null, metadata !228, i32 0, i32 0} ; [ DW_TAG_subroutine_type ]
!228 = metadata !{null, metadata !204, metadata !229, metadata !230}
!229 = metadata !{i32 786447, null, metadata !"", null, i32 0, i64 64, i64 64, i64 0, i32 0, metadata !210} ; [ DW_TAG_pointer_type ]
!230 = metadata !{i32 786454, metadata !126, metadata !"category", metadata !128, i32 66, i64 0, i64 0, i64 0, i32 0, metadata !35} ; [ DW_TAG_typedef ]
!231 = metadata !{i32 786478, i32 0, metadata !132, metadata !"_M_replace_category", metadata !"_M_replace_category", metadata !"_ZNSt6locale5_Impl19_M_replace_categoryEPKS0_PKPKNS_2idE", metadata !128, i32 545, metadata !232, i1 false, i1 false, i32 0, i32 0, null, i32 257, i1 false, null, null, i32 0, metadata !99, i32 545} ; [ DW_TAG_subprogram ]
!232 = metadata !{i32 786453, i32 0, metadata !"", i32 0, i32 0, i64 0, i64 0, i64 0, i32 0, null, metadata !233, i32 0, i32 0} ; [ DW_TAG_subroutine_type ]
!233 = metadata !{null, metadata !204, metadata !229, metadata !234}
!234 = metadata !{i32 786447, null, metadata !"", null, i32 0, i64 64, i64 64, i64 0, i32 0, metadata !235} ; [ DW_TAG_pointer_type ]
!235 = metadata !{i32 786470, null, metadata !"", null, i32 0, i64 0, i64 0, i64 0, i32 0, metadata !236} ; [ DW_TAG_const_type ]
!236 = metadata !{i32 786447, null, metadata !"", null, i32 0, i64 64, i64 64, i64 0, i32 0, metadata !237} ; [ DW_TAG_pointer_type ]
!237 = metadata !{i32 786470, null, metadata !"", null, i32 0, i64 0, i64 0, i64 0, i32 0, metadata !238} ; [ DW_TAG_const_type ]
!238 = metadata !{i32 786434, metadata !126, metadata !"id", metadata !128, i32 431, i64 64, i64 64, i32 0, i32 0, null, metadata !239, i32 0, null, null} ; [ DW_TAG_class_type ]
!239 = metadata !{metadata !240, metadata !241, metadata !246, metadata !247, metadata !250, metadata !254, metadata !255}
!240 = metadata !{i32 786445, metadata !238, metadata !"_M_index", metadata !128, i32 448, i64 64, i64 64, i64 0, i32 1, metadata !150} ; [ DW_TAG_member ]
!241 = metadata !{i32 786478, i32 0, metadata !238, metadata !"operator=", metadata !"operator=", metadata !"_ZNSt6locale2idaSERKS0_", metadata !128, i32 454, metadata !242, i1 false, i1 false, i32 0, i32 0, null, i32 257, i1 false, null, null, i32 0, metadata !99, i32 454} ; [ DW_TAG_subprogram ]
!242 = metadata !{i32 786453, i32 0, metadata !"", i32 0, i32 0, i64 0, i64 0, i64 0, i32 0, null, metadata !243, i32 0, i32 0} ; [ DW_TAG_subroutine_type ]
!243 = metadata !{null, metadata !244, metadata !245}
!244 = metadata !{i32 786447, i32 0, metadata !"", i32 0, i32 0, i64 64, i64 64, i64 0, i32 64, metadata !238} ; [ DW_TAG_pointer_type ]
!245 = metadata !{i32 786448, null, null, null, i32 0, i64 0, i64 0, i64 0, i32 0, metadata !237} ; [ DW_TAG_reference_type ]
!246 = metadata !{i32 786478, i32 0, metadata !238, metadata !"id", metadata !"id", metadata !"", metadata !128, i32 456, metadata !242, i1 false, i1 false, i32 0, i32 0, null, i32 257, i1 false, null, null, i32 0, metadata !99, i32 456} ; [ DW_TAG_subprogram ]
!247 = metadata !{i32 786478, i32 0, metadata !238, metadata !"id", metadata !"id", metadata !"", metadata !128, i32 462, metadata !248, i1 false, i1 false, i32 0, i32 0, null, i32 256, i1 false, null, null, i32 0, metadata !99, i32 462} ; [ DW_TAG_subprogram ]
!248 = metadata !{i32 786453, i32 0, metadata !"", i32 0, i32 0, i64 0, i64 0, i64 0, i32 0, null, metadata !249, i32 0, i32 0} ; [ DW_TAG_subroutine_type ]
!249 = metadata !{null, metadata !244}
!250 = metadata !{i32 786478, i32 0, metadata !238, metadata !"_M_id", metadata !"_M_id", metadata !"_ZNKSt6locale2id5_M_idEv", metadata !128, i32 465, metadata !251, i1 false, i1 false, i32 0, i32 0, null, i32 256, i1 false, null, null, i32 0, metadata !99, i32 465} ; [ DW_TAG_subprogram ]
!251 = metadata !{i32 786453, i32 0, metadata !"", i32 0, i32 0, i64 0, i64 0, i64 0, i32 0, null, metadata !252, i32 0, i32 0} ; [ DW_TAG_subroutine_type ]
!252 = metadata !{metadata !150, metadata !253}
!253 = metadata !{i32 786447, i32 0, metadata !"", i32 0, i32 0, i64 64, i64 64, i64 0, i32 64, metadata !237} ; [ DW_TAG_pointer_type ]
!254 = metadata !{i32 786474, metadata !238, null, metadata !128, i32 0, i64 0, i64 0, i64 0, i32 0, metadata !132} ; [ DW_TAG_friend ]
!255 = metadata !{i32 786474, metadata !238, null, metadata !128, i32 0, i64 0, i64 0, i64 0, i32 0, metadata !126} ; [ DW_TAG_friend ]
!256 = metadata !{i32 786478, i32 0, metadata !132, metadata !"_M_replace_facet", metadata !"_M_replace_facet", metadata !"_ZNSt6locale5_Impl16_M_replace_facetEPKS0_PKNS_2idE", metadata !128, i32 548, metadata !257, i1 false, i1 false, i32 0, i32 0, null, i32 257, i1 false, null, null, i32 0, metadata !99, i32 548} ; [ DW_TAG_subprogram ]
!257 = metadata !{i32 786453, i32 0, metadata !"", i32 0, i32 0, i64 0, i64 0, i64 0, i32 0, null, metadata !258, i32 0, i32 0} ; [ DW_TAG_subroutine_type ]
!258 = metadata !{null, metadata !204, metadata !229, metadata !236}
!259 = metadata !{i32 786478, i32 0, metadata !132, metadata !"_M_install_facet", metadata !"_M_install_facet", metadata !"_ZNSt6locale5_Impl16_M_install_facetEPKNS_2idEPKNS_5facetE", metadata !128, i32 551, metadata !260, i1 false, i1 false, i32 0, i32 0, null, i32 257, i1 false, null, null, i32 0, metadata !99, i32 551} ; [ DW_TAG_subprogram ]
!260 = metadata !{i32 786453, i32 0, metadata !"", i32 0, i32 0, i64 0, i64 0, i64 0, i32 0, null, metadata !261, i32 0, i32 0} ; [ DW_TAG_subroutine_type ]
!261 = metadata !{null, metadata !204, metadata !236, metadata !137}
!262 = metadata !{i32 786478, i32 0, metadata !132, metadata !"_M_install_cache", metadata !"_M_install_cache", metadata !"_ZNSt6locale5_Impl16_M_install_cacheEPKNS_5facetEy", metadata !128, i32 559, metadata !263, i1 false, i1 false, i32 0, i32 0, null, i32 257, i1 false, null, null, i32 0, metadata !99, i32 559} ; [ DW_TAG_subprogram ]
!263 = metadata !{i32 786453, i32 0, metadata !"", i32 0, i32 0, i64 0, i64 0, i64 0, i32 0, null, metadata !264, i32 0, i32 0} ; [ DW_TAG_subroutine_type ]
!264 = metadata !{null, metadata !204, metadata !137, metadata !150}
!265 = metadata !{i32 786474, metadata !132, null, metadata !128, i32 0, i64 0, i64 0, i64 0, i32 0, metadata !139} ; [ DW_TAG_friend ]
!266 = metadata !{i32 786474, metadata !132, null, metadata !128, i32 0, i64 0, i64 0, i64 0, i32 0, metadata !126} ; [ DW_TAG_friend ]
!267 = metadata !{i32 786478, i32 0, metadata !126, metadata !"locale", metadata !"locale", metadata !"", metadata !128, i32 116, metadata !268, i1 false, i1 false, i32 0, i32 0, null, i32 256, i1 false, null, null, i32 0, metadata !99, i32 116} ; [ DW_TAG_subprogram ]
!268 = metadata !{i32 786453, i32 0, metadata !"", i32 0, i32 0, i64 0, i64 0, i64 0, i32 0, null, metadata !269, i32 0, i32 0} ; [ DW_TAG_subroutine_type ]
!269 = metadata !{null, metadata !270}
!270 = metadata !{i32 786447, i32 0, metadata !"", i32 0, i32 0, i64 64, i64 64, i64 0, i32 64, metadata !126} ; [ DW_TAG_pointer_type ]
!271 = metadata !{i32 786478, i32 0, metadata !126, metadata !"locale", metadata !"locale", metadata !"", metadata !128, i32 125, metadata !272, i1 false, i1 false, i32 0, i32 0, null, i32 256, i1 false, null, null, i32 0, metadata !99, i32 125} ; [ DW_TAG_subprogram ]
!272 = metadata !{i32 786453, i32 0, metadata !"", i32 0, i32 0, i64 0, i64 0, i64 0, i32 0, null, metadata !273, i32 0, i32 0} ; [ DW_TAG_subroutine_type ]
!273 = metadata !{null, metadata !270, metadata !274}
!274 = metadata !{i32 786448, null, null, null, i32 0, i64 0, i64 0, i64 0, i32 0, metadata !275} ; [ DW_TAG_reference_type ]
!275 = metadata !{i32 786470, null, metadata !"", null, i32 0, i64 0, i64 0, i64 0, i32 0, metadata !126} ; [ DW_TAG_const_type ]
!276 = metadata !{i32 786478, i32 0, metadata !126, metadata !"locale", metadata !"locale", metadata !"", metadata !128, i32 136, metadata !277, i1 false, i1 false, i32 0, i32 0, null, i32 384, i1 false, null, null, i32 0, metadata !99, i32 136} ; [ DW_TAG_subprogram ]
!277 = metadata !{i32 786453, i32 0, metadata !"", i32 0, i32 0, i64 0, i64 0, i64 0, i32 0, null, metadata !278, i32 0, i32 0} ; [ DW_TAG_subroutine_type ]
!278 = metadata !{null, metadata !270, metadata !163}
!279 = metadata !{i32 786478, i32 0, metadata !126, metadata !"locale", metadata !"locale", metadata !"", metadata !128, i32 150, metadata !280, i1 false, i1 false, i32 0, i32 0, null, i32 256, i1 false, null, null, i32 0, metadata !99, i32 150} ; [ DW_TAG_subprogram ]
!280 = metadata !{i32 786453, i32 0, metadata !"", i32 0, i32 0, i64 0, i64 0, i64 0, i32 0, null, metadata !281, i32 0, i32 0} ; [ DW_TAG_subroutine_type ]
!281 = metadata !{null, metadata !270, metadata !274, metadata !163, metadata !230}
!282 = metadata !{i32 786478, i32 0, metadata !126, metadata !"locale", metadata !"locale", metadata !"", metadata !128, i32 163, metadata !283, i1 false, i1 false, i32 0, i32 0, null, i32 256, i1 false, null, null, i32 0, metadata !99, i32 163} ; [ DW_TAG_subprogram ]
!283 = metadata !{i32 786453, i32 0, metadata !"", i32 0, i32 0, i64 0, i64 0, i64 0, i32 0, null, metadata !284, i32 0, i32 0} ; [ DW_TAG_subroutine_type ]
!284 = metadata !{null, metadata !270, metadata !274, metadata !274, metadata !230}
!285 = metadata !{i32 786478, i32 0, metadata !126, metadata !"~locale", metadata !"~locale", metadata !"", metadata !128, i32 179, metadata !268, i1 false, i1 false, i32 0, i32 0, null, i32 256, i1 false, null, null, i32 0, metadata !99, i32 179} ; [ DW_TAG_subprogram ]
!286 = metadata !{i32 786478, i32 0, metadata !126, metadata !"operator=", metadata !"operator=", metadata !"_ZNSt6localeaSERKS_", metadata !128, i32 190, metadata !287, i1 false, i1 false, i32 0, i32 0, null, i32 256, i1 false, null, null, i32 0, metadata !99, i32 190} ; [ DW_TAG_subprogram ]
!287 = metadata !{i32 786453, i32 0, metadata !"", i32 0, i32 0, i64 0, i64 0, i64 0, i32 0, null, metadata !288, i32 0, i32 0} ; [ DW_TAG_subroutine_type ]
!288 = metadata !{metadata !274, metadata !270, metadata !274}
!289 = metadata !{i32 786478, i32 0, metadata !126, metadata !"name", metadata !"name", metadata !"_ZNKSt6locale4nameEv", metadata !128, i32 214, metadata !290, i1 false, i1 false, i32 0, i32 0, null, i32 256, i1 false, null, null, i32 0, metadata !99, i32 214} ; [ DW_TAG_subprogram ]
!290 = metadata !{i32 786453, i32 0, metadata !"", i32 0, i32 0, i64 0, i64 0, i64 0, i32 0, null, metadata !291, i32 0, i32 0} ; [ DW_TAG_subroutine_type ]
!291 = metadata !{metadata !292, metadata !783}
!292 = metadata !{i32 786454, metadata !293, metadata !"string", metadata !128, i32 62, i64 0, i64 0, i64 0, i32 0, metadata !295} ; [ DW_TAG_typedef ]
!293 = metadata !{i32 786489, null, metadata !"std", metadata !294, i32 42} ; [ DW_TAG_namespace ]
!294 = metadata !{i32 786473, metadata !"D:/Xilinx/Vivado_HLS/2016.2/win64/tools/clang/bin\5C..\5Clib\5Cclang\5C3.1/../../../include/c++/4.5.2\5Cbits/stringfwd.h", metadata !"C:\5CUsers\5CMatthew\5CDesktop\5Cembs_open2", null} ; [ DW_TAG_file_type ]
!295 = metadata !{i32 786434, metadata !293, metadata !"basic_string<char>", metadata !296, i32 1132, i64 64, i64 64, i32 0, i32 0, null, metadata !297, i32 0, null, metadata !727} ; [ DW_TAG_class_type ]
!296 = metadata !{i32 786473, metadata !"D:/Xilinx/Vivado_HLS/2016.2/win64/tools/clang/bin\5C..\5Clib\5Cclang\5C3.1/../../../include/c++/4.5.2\5Cbits/basic_string.tcc", metadata !"C:\5CUsers\5CMatthew\5CDesktop\5Cembs_open2", null} ; [ DW_TAG_file_type ]
!297 = metadata !{metadata !298, metadata !371, metadata !376, metadata !380, metadata !429, metadata !435, metadata !436, metadata !439, metadata !442, metadata !445, metadata !448, metadata !451, metadata !454, metadata !455, metadata !458, metadata !461, metadata !466, metadata !469, metadata !472, metadata !475, metadata !478, metadata !479, metadata !480, metadata !481, metadata !484, metadata !488, metadata !491, metadata !494, metadata !497, metadata !500, metadata !503, metadata !504, metadata !508, metadata !511, metadata !514, metadata !517, metadata !520, metadata !521, metadata !522, metadata !527, metadata !532, metadata !533, metadata !534, metadata !537, metadata !538, metadata !539, metadata !542, metadata !545, metadata !546, metadata !547, metadata !548, metadata !551, metadata !556, metadata !561, metadata !562, metadata !563, metadata !564, metadata !565, metadata !566, metadata !567, metadata !570, metadata !573, metadata !574, metadata !577, metadata !580, metadata !581, metadata !582, metadata !583, metadata !584, metadata !585, metadata !588, metadata !591, metadata !594, metadata !597, metadata !600, metadata !603, metadata !606, metadata !609, metadata !612, metadata !615, metadata !618, metadata !621, metadata !624, metadata !627, metadata !630, metadata !633, metadata !636, metadata !639, metadata !642, metadata !645, metadata !648, metadata !651, metadata !654, metadata !655, metadata !656, metadata !659, metadata !660, metadata !663, metadata !666, metadata !669, metadata !670, metadata !674, metadata !677, metadata !680, metadata !683, metadata !686, metadata !687, metadata !688, metadata !689, metadata !690, metadata !691, metadata !692, metadata !693, metadata !694, metadata !695, metadata !696, metadata !697, metadata !698, metadata !699, metadata !700, metadata !701, metadata !702, metadata !703, metadata !704, metadata !705, metadata !706, metadata !709, metadata !712, metadata !715, metadata !718, metadata !721, metadata !724}
!298 = metadata !{i32 786445, metadata !295, metadata !"_M_dataplus", metadata !299, i32 274, i64 64, i64 64, i64 0, i32 1, metadata !300} ; [ DW_TAG_member ]
!299 = metadata !{i32 786473, metadata !"D:/Xilinx/Vivado_HLS/2016.2/win64/tools/clang/bin\5C..\5Clib\5Cclang\5C3.1/../../../include/c++/4.5.2\5Cbits/basic_string.h", metadata !"C:\5CUsers\5CMatthew\5CDesktop\5Cembs_open2", null} ; [ DW_TAG_file_type ]
!300 = metadata !{i32 786434, metadata !295, metadata !"_Alloc_hider", metadata !299, i32 257, i64 64, i64 64, i32 0, i32 0, null, metadata !301, i32 0, null, null} ; [ DW_TAG_class_type ]
!301 = metadata !{metadata !302, metadata !366, metadata !367}
!302 = metadata !{i32 786460, metadata !300, null, metadata !299, i32 0, i64 0, i64 0, i64 0, i32 0, metadata !303} ; [ DW_TAG_inheritance ]
!303 = metadata !{i32 786434, metadata !293, metadata !"allocator<char>", metadata !304, i32 138, i64 8, i64 8, i32 0, i32 0, null, metadata !305, i32 0, null, metadata !364} ; [ DW_TAG_class_type ]
!304 = metadata !{i32 786473, metadata !"D:/Xilinx/Vivado_HLS/2016.2/win64/tools/clang/bin\5C..\5Clib\5Cclang\5C3.1/../../../include/c++/4.5.2\5Cbits/allocator.h", metadata !"C:\5CUsers\5CMatthew\5CDesktop\5Cembs_open2", null} ; [ DW_TAG_file_type ]
!305 = metadata !{metadata !306, metadata !354, metadata !358, metadata !363}
!306 = metadata !{i32 786460, metadata !303, null, metadata !304, i32 0, i64 0, i64 0, i64 0, i32 0, metadata !307} ; [ DW_TAG_inheritance ]
!307 = metadata !{i32 786434, metadata !308, metadata !"new_allocator<char>", metadata !309, i32 51, i64 8, i64 8, i32 0, i32 0, null, metadata !310, i32 0, null, metadata !352} ; [ DW_TAG_class_type ]
!308 = metadata !{i32 786489, null, metadata !"__gnu_cxx", metadata !309, i32 37} ; [ DW_TAG_namespace ]
!309 = metadata !{i32 786473, metadata !"D:/Xilinx/Vivado_HLS/2016.2/win64/tools/clang/bin\5C..\5Clib\5Cclang\5C3.1/../../../include/c++/4.5.2\5Cext/new_allocator.h", metadata !"C:\5CUsers\5CMatthew\5CDesktop\5Cembs_open2", null} ; [ DW_TAG_file_type ]
!310 = metadata !{metadata !311, metadata !315, metadata !320, metadata !321, metadata !328, metadata !334, metadata !340, metadata !343, metadata !346, metadata !349}
!311 = metadata !{i32 786478, i32 0, metadata !307, metadata !"new_allocator", metadata !"new_allocator", metadata !"", metadata !309, i32 66, metadata !312, i1 false, i1 false, i32 0, i32 0, null, i32 256, i1 false, null, null, i32 0, metadata !99, i32 66} ; [ DW_TAG_subprogram ]
!312 = metadata !{i32 786453, i32 0, metadata !"", i32 0, i32 0, i64 0, i64 0, i64 0, i32 0, null, metadata !313, i32 0, i32 0} ; [ DW_TAG_subroutine_type ]
!313 = metadata !{null, metadata !314}
!314 = metadata !{i32 786447, i32 0, metadata !"", i32 0, i32 0, i64 64, i64 64, i64 0, i32 64, metadata !307} ; [ DW_TAG_pointer_type ]
!315 = metadata !{i32 786478, i32 0, metadata !307, metadata !"new_allocator", metadata !"new_allocator", metadata !"", metadata !309, i32 68, metadata !316, i1 false, i1 false, i32 0, i32 0, null, i32 256, i1 false, null, null, i32 0, metadata !99, i32 68} ; [ DW_TAG_subprogram ]
!316 = metadata !{i32 786453, i32 0, metadata !"", i32 0, i32 0, i64 0, i64 0, i64 0, i32 0, null, metadata !317, i32 0, i32 0} ; [ DW_TAG_subroutine_type ]
!317 = metadata !{null, metadata !314, metadata !318}
!318 = metadata !{i32 786448, null, null, null, i32 0, i64 0, i64 0, i64 0, i32 0, metadata !319} ; [ DW_TAG_reference_type ]
!319 = metadata !{i32 786470, null, metadata !"", null, i32 0, i64 0, i64 0, i64 0, i32 0, metadata !307} ; [ DW_TAG_const_type ]
!320 = metadata !{i32 786478, i32 0, metadata !307, metadata !"~new_allocator", metadata !"~new_allocator", metadata !"", metadata !309, i32 73, metadata !312, i1 false, i1 false, i32 0, i32 0, null, i32 256, i1 false, null, null, i32 0, metadata !99, i32 73} ; [ DW_TAG_subprogram ]
!321 = metadata !{i32 786478, i32 0, metadata !307, metadata !"address", metadata !"address", metadata !"_ZNK9__gnu_cxx13new_allocatorIcE7addressERc", metadata !309, i32 76, metadata !322, i1 false, i1 false, i32 0, i32 0, null, i32 256, i1 false, null, null, i32 0, metadata !99, i32 76} ; [ DW_TAG_subprogram ]
!322 = metadata !{i32 786453, i32 0, metadata !"", i32 0, i32 0, i64 0, i64 0, i64 0, i32 0, null, metadata !323, i32 0, i32 0} ; [ DW_TAG_subroutine_type ]
!323 = metadata !{metadata !324, metadata !325, metadata !326}
!324 = metadata !{i32 786454, metadata !307, metadata !"pointer", metadata !309, i32 56, i64 0, i64 0, i64 0, i32 0, metadata !200} ; [ DW_TAG_typedef ]
!325 = metadata !{i32 786447, i32 0, metadata !"", i32 0, i32 0, i64 64, i64 64, i64 0, i32 64, metadata !319} ; [ DW_TAG_pointer_type ]
!326 = metadata !{i32 786454, metadata !307, metadata !"reference", metadata !309, i32 58, i64 0, i64 0, i64 0, i32 0, metadata !327} ; [ DW_TAG_typedef ]
!327 = metadata !{i32 786448, null, null, null, i32 0, i64 0, i64 0, i64 0, i32 0, metadata !165} ; [ DW_TAG_reference_type ]
!328 = metadata !{i32 786478, i32 0, metadata !307, metadata !"address", metadata !"address", metadata !"_ZNK9__gnu_cxx13new_allocatorIcE7addressERKc", metadata !309, i32 79, metadata !329, i1 false, i1 false, i32 0, i32 0, null, i32 256, i1 false, null, null, i32 0, metadata !99, i32 79} ; [ DW_TAG_subprogram ]
!329 = metadata !{i32 786453, i32 0, metadata !"", i32 0, i32 0, i64 0, i64 0, i64 0, i32 0, null, metadata !330, i32 0, i32 0} ; [ DW_TAG_subroutine_type ]
!330 = metadata !{metadata !331, metadata !325, metadata !332}
!331 = metadata !{i32 786454, metadata !307, metadata !"const_pointer", metadata !309, i32 57, i64 0, i64 0, i64 0, i32 0, metadata !163} ; [ DW_TAG_typedef ]
!332 = metadata !{i32 786454, metadata !307, metadata !"const_reference", metadata !309, i32 59, i64 0, i64 0, i64 0, i32 0, metadata !333} ; [ DW_TAG_typedef ]
!333 = metadata !{i32 786448, null, null, null, i32 0, i64 0, i64 0, i64 0, i32 0, metadata !164} ; [ DW_TAG_reference_type ]
!334 = metadata !{i32 786478, i32 0, metadata !307, metadata !"allocate", metadata !"allocate", metadata !"_ZN9__gnu_cxx13new_allocatorIcE8allocateEyPKv", metadata !309, i32 84, metadata !335, i1 false, i1 false, i32 0, i32 0, null, i32 256, i1 false, null, null, i32 0, metadata !99, i32 84} ; [ DW_TAG_subprogram ]
!335 = metadata !{i32 786453, i32 0, metadata !"", i32 0, i32 0, i64 0, i64 0, i64 0, i32 0, null, metadata !336, i32 0, i32 0} ; [ DW_TAG_subroutine_type ]
!336 = metadata !{metadata !324, metadata !314, metadata !337, metadata !338}
!337 = metadata !{i32 786454, null, metadata !"size_type", metadata !309, i32 54, i64 0, i64 0, i64 0, i32 0, metadata !150} ; [ DW_TAG_typedef ]
!338 = metadata !{i32 786447, null, metadata !"", null, i32 0, i64 64, i64 64, i64 0, i32 0, metadata !339} ; [ DW_TAG_pointer_type ]
!339 = metadata !{i32 786470, null, metadata !"", null, i32 0, i64 0, i64 0, i64 0, i32 0, null} ; [ DW_TAG_const_type ]
!340 = metadata !{i32 786478, i32 0, metadata !307, metadata !"deallocate", metadata !"deallocate", metadata !"_ZN9__gnu_cxx13new_allocatorIcE10deallocateEPcy", metadata !309, i32 94, metadata !341, i1 false, i1 false, i32 0, i32 0, null, i32 256, i1 false, null, null, i32 0, metadata !99, i32 94} ; [ DW_TAG_subprogram ]
!341 = metadata !{i32 786453, i32 0, metadata !"", i32 0, i32 0, i64 0, i64 0, i64 0, i32 0, null, metadata !342, i32 0, i32 0} ; [ DW_TAG_subroutine_type ]
!342 = metadata !{null, metadata !314, metadata !324, metadata !337}
!343 = metadata !{i32 786478, i32 0, metadata !307, metadata !"max_size", metadata !"max_size", metadata !"_ZNK9__gnu_cxx13new_allocatorIcE8max_sizeEv", metadata !309, i32 98, metadata !344, i1 false, i1 false, i32 0, i32 0, null, i32 256, i1 false, null, null, i32 0, metadata !99, i32 98} ; [ DW_TAG_subprogram ]
!344 = metadata !{i32 786453, i32 0, metadata !"", i32 0, i32 0, i64 0, i64 0, i64 0, i32 0, null, metadata !345, i32 0, i32 0} ; [ DW_TAG_subroutine_type ]
!345 = metadata !{metadata !337, metadata !325}
!346 = metadata !{i32 786478, i32 0, metadata !307, metadata !"construct", metadata !"construct", metadata !"_ZN9__gnu_cxx13new_allocatorIcE9constructEPcRKc", metadata !309, i32 104, metadata !347, i1 false, i1 false, i32 0, i32 0, null, i32 256, i1 false, null, null, i32 0, metadata !99, i32 104} ; [ DW_TAG_subprogram ]
!347 = metadata !{i32 786453, i32 0, metadata !"", i32 0, i32 0, i64 0, i64 0, i64 0, i32 0, null, metadata !348, i32 0, i32 0} ; [ DW_TAG_subroutine_type ]
!348 = metadata !{null, metadata !314, metadata !324, metadata !333}
!349 = metadata !{i32 786478, i32 0, metadata !307, metadata !"destroy", metadata !"destroy", metadata !"_ZN9__gnu_cxx13new_allocatorIcE7destroyEPc", metadata !309, i32 115, metadata !350, i1 false, i1 false, i32 0, i32 0, null, i32 256, i1 false, null, null, i32 0, metadata !99, i32 115} ; [ DW_TAG_subprogram ]
!350 = metadata !{i32 786453, i32 0, metadata !"", i32 0, i32 0, i64 0, i64 0, i64 0, i32 0, null, metadata !351, i32 0, i32 0} ; [ DW_TAG_subroutine_type ]
!351 = metadata !{null, metadata !314, metadata !324}
!352 = metadata !{metadata !353}
!353 = metadata !{i32 786479, null, metadata !"_Tp", metadata !165, null, i32 0, i32 0} ; [ DW_TAG_template_type_parameter ]
!354 = metadata !{i32 786478, i32 0, metadata !303, metadata !"allocator", metadata !"allocator", metadata !"", metadata !304, i32 101, metadata !355, i1 false, i1 false, i32 0, i32 0, null, i32 256, i1 false, null, null, i32 0, metadata !99, i32 101} ; [ DW_TAG_subprogram ]
!355 = metadata !{i32 786453, i32 0, metadata !"", i32 0, i32 0, i64 0, i64 0, i64 0, i32 0, null, metadata !356, i32 0, i32 0} ; [ DW_TAG_subroutine_type ]
!356 = metadata !{null, metadata !357}
!357 = metadata !{i32 786447, i32 0, metadata !"", i32 0, i32 0, i64 64, i64 64, i64 0, i32 64, metadata !303} ; [ DW_TAG_pointer_type ]
!358 = metadata !{i32 786478, i32 0, metadata !303, metadata !"allocator", metadata !"allocator", metadata !"", metadata !304, i32 103, metadata !359, i1 false, i1 false, i32 0, i32 0, null, i32 256, i1 false, null, null, i32 0, metadata !99, i32 103} ; [ DW_TAG_subprogram ]
!359 = metadata !{i32 786453, i32 0, metadata !"", i32 0, i32 0, i64 0, i64 0, i64 0, i32 0, null, metadata !360, i32 0, i32 0} ; [ DW_TAG_subroutine_type ]
!360 = metadata !{null, metadata !357, metadata !361}
!361 = metadata !{i32 786448, null, null, null, i32 0, i64 0, i64 0, i64 0, i32 0, metadata !362} ; [ DW_TAG_reference_type ]
!362 = metadata !{i32 786470, null, metadata !"", null, i32 0, i64 0, i64 0, i64 0, i32 0, metadata !303} ; [ DW_TAG_const_type ]
!363 = metadata !{i32 786478, i32 0, metadata !303, metadata !"~allocator", metadata !"~allocator", metadata !"", metadata !304, i32 109, metadata !355, i1 false, i1 false, i32 0, i32 0, null, i32 256, i1 false, null, null, i32 0, metadata !99, i32 109} ; [ DW_TAG_subprogram ]
!364 = metadata !{metadata !365}
!365 = metadata !{i32 786479, null, metadata !"_Alloc", metadata !165, null, i32 0, i32 0} ; [ DW_TAG_template_type_parameter ]
!366 = metadata !{i32 786445, metadata !300, metadata !"_M_p", metadata !299, i32 262, i64 64, i64 64, i64 0, i32 0, metadata !200} ; [ DW_TAG_member ]
!367 = metadata !{i32 786478, i32 0, metadata !300, metadata !"_Alloc_hider", metadata !"_Alloc_hider", metadata !"", metadata !299, i32 259, metadata !368, i1 false, i1 false, i32 0, i32 0, null, i32 256, i1 false, null, null, i32 0, metadata !99, i32 259} ; [ DW_TAG_subprogram ]
!368 = metadata !{i32 786453, i32 0, metadata !"", i32 0, i32 0, i64 0, i64 0, i64 0, i32 0, null, metadata !369, i32 0, i32 0} ; [ DW_TAG_subroutine_type ]
!369 = metadata !{null, metadata !370, metadata !200, metadata !361}
!370 = metadata !{i32 786447, i32 0, metadata !"", i32 0, i32 0, i64 64, i64 64, i64 0, i32 64, metadata !300} ; [ DW_TAG_pointer_type ]
!371 = metadata !{i32 786478, i32 0, metadata !295, metadata !"_M_data", metadata !"_M_data", metadata !"_ZNKSs7_M_dataEv", metadata !299, i32 277, metadata !372, i1 false, i1 false, i32 0, i32 0, null, i32 257, i1 false, null, null, i32 0, metadata !99, i32 277} ; [ DW_TAG_subprogram ]
!372 = metadata !{i32 786453, i32 0, metadata !"", i32 0, i32 0, i64 0, i64 0, i64 0, i32 0, null, metadata !373, i32 0, i32 0} ; [ DW_TAG_subroutine_type ]
!373 = metadata !{metadata !200, metadata !374}
!374 = metadata !{i32 786447, i32 0, metadata !"", i32 0, i32 0, i64 64, i64 64, i64 0, i32 64, metadata !375} ; [ DW_TAG_pointer_type ]
!375 = metadata !{i32 786470, null, metadata !"", null, i32 0, i64 0, i64 0, i64 0, i32 0, metadata !295} ; [ DW_TAG_const_type ]
!376 = metadata !{i32 786478, i32 0, metadata !295, metadata !"_M_data", metadata !"_M_data", metadata !"_ZNSs7_M_dataEPc", metadata !299, i32 281, metadata !377, i1 false, i1 false, i32 0, i32 0, null, i32 257, i1 false, null, null, i32 0, metadata !99, i32 281} ; [ DW_TAG_subprogram ]
!377 = metadata !{i32 786453, i32 0, metadata !"", i32 0, i32 0, i64 0, i64 0, i64 0, i32 0, null, metadata !378, i32 0, i32 0} ; [ DW_TAG_subroutine_type ]
!378 = metadata !{metadata !200, metadata !379, metadata !200}
!379 = metadata !{i32 786447, i32 0, metadata !"", i32 0, i32 0, i64 64, i64 64, i64 0, i32 64, metadata !295} ; [ DW_TAG_pointer_type ]
!380 = metadata !{i32 786478, i32 0, metadata !295, metadata !"_M_rep", metadata !"_M_rep", metadata !"_ZNKSs6_M_repEv", metadata !299, i32 285, metadata !381, i1 false, i1 false, i32 0, i32 0, null, i32 257, i1 false, null, null, i32 0, metadata !99, i32 285} ; [ DW_TAG_subprogram ]
!381 = metadata !{i32 786453, i32 0, metadata !"", i32 0, i32 0, i64 0, i64 0, i64 0, i32 0, null, metadata !382, i32 0, i32 0} ; [ DW_TAG_subroutine_type ]
!382 = metadata !{metadata !383, metadata !374}
!383 = metadata !{i32 786447, null, metadata !"", null, i32 0, i64 64, i64 64, i64 0, i32 0, metadata !384} ; [ DW_TAG_pointer_type ]
!384 = metadata !{i32 786434, metadata !295, metadata !"_Rep", metadata !299, i32 147, i64 192, i64 64, i32 0, i32 0, null, metadata !385, i32 0, null, null} ; [ DW_TAG_class_type ]
!385 = metadata !{metadata !386, metadata !394, metadata !398, metadata !403, metadata !404, metadata !408, metadata !409, metadata !412, metadata !415, metadata !418, metadata !421, metadata !424, metadata !425, metadata !426}
!386 = metadata !{i32 786460, metadata !384, null, metadata !299, i32 0, i64 0, i64 0, i64 0, i32 0, metadata !387} ; [ DW_TAG_inheritance ]
!387 = metadata !{i32 786434, metadata !295, metadata !"_Rep_base", metadata !299, i32 140, i64 192, i64 64, i32 0, i32 0, null, metadata !388, i32 0, null, null} ; [ DW_TAG_class_type ]
!388 = metadata !{metadata !389, metadata !392, metadata !393}
!389 = metadata !{i32 786445, metadata !387, metadata !"_M_length", metadata !299, i32 142, i64 64, i64 64, i64 0, i32 0, metadata !390} ; [ DW_TAG_member ]
!390 = metadata !{i32 786454, metadata !295, metadata !"size_type", metadata !299, i32 113, i64 0, i64 0, i64 0, i32 0, metadata !391} ; [ DW_TAG_typedef ]
!391 = metadata !{i32 786454, metadata !303, metadata !"size_type", metadata !299, i32 89, i64 0, i64 0, i64 0, i32 0, metadata !150} ; [ DW_TAG_typedef ]
!392 = metadata !{i32 786445, metadata !387, metadata !"_M_capacity", metadata !299, i32 143, i64 64, i64 64, i64 64, i32 0, metadata !390} ; [ DW_TAG_member ]
!393 = metadata !{i32 786445, metadata !387, metadata !"_M_refcount", metadata !299, i32 144, i64 32, i64 32, i64 128, i32 0, metadata !94} ; [ DW_TAG_member ]
!394 = metadata !{i32 786478, i32 0, metadata !384, metadata !"_S_empty_rep", metadata !"_S_empty_rep", metadata !"_ZNSs4_Rep12_S_empty_repEv", metadata !299, i32 173, metadata !395, i1 false, i1 false, i32 0, i32 0, null, i32 256, i1 false, null, null, i32 0, metadata !99, i32 173} ; [ DW_TAG_subprogram ]
!395 = metadata !{i32 786453, i32 0, metadata !"", i32 0, i32 0, i64 0, i64 0, i64 0, i32 0, null, metadata !396, i32 0, i32 0} ; [ DW_TAG_subroutine_type ]
!396 = metadata !{metadata !397}
!397 = metadata !{i32 786448, null, null, null, i32 0, i64 0, i64 0, i64 0, i32 0, metadata !384} ; [ DW_TAG_reference_type ]
!398 = metadata !{i32 786478, i32 0, metadata !384, metadata !"_M_is_leaked", metadata !"_M_is_leaked", metadata !"_ZNKSs4_Rep12_M_is_leakedEv", metadata !299, i32 183, metadata !399, i1 false, i1 false, i32 0, i32 0, null, i32 256, i1 false, null, null, i32 0, metadata !99, i32 183} ; [ DW_TAG_subprogram ]
!399 = metadata !{i32 786453, i32 0, metadata !"", i32 0, i32 0, i64 0, i64 0, i64 0, i32 0, null, metadata !400, i32 0, i32 0} ; [ DW_TAG_subroutine_type ]
!400 = metadata !{metadata !225, metadata !401}
!401 = metadata !{i32 786447, i32 0, metadata !"", i32 0, i32 0, i64 64, i64 64, i64 0, i32 64, metadata !402} ; [ DW_TAG_pointer_type ]
!402 = metadata !{i32 786470, null, metadata !"", null, i32 0, i64 0, i64 0, i64 0, i32 0, metadata !384} ; [ DW_TAG_const_type ]
!403 = metadata !{i32 786478, i32 0, metadata !384, metadata !"_M_is_shared", metadata !"_M_is_shared", metadata !"_ZNKSs4_Rep12_M_is_sharedEv", metadata !299, i32 187, metadata !399, i1 false, i1 false, i32 0, i32 0, null, i32 256, i1 false, null, null, i32 0, metadata !99, i32 187} ; [ DW_TAG_subprogram ]
!404 = metadata !{i32 786478, i32 0, metadata !384, metadata !"_M_set_leaked", metadata !"_M_set_leaked", metadata !"_ZNSs4_Rep13_M_set_leakedEv", metadata !299, i32 191, metadata !405, i1 false, i1 false, i32 0, i32 0, null, i32 256, i1 false, null, null, i32 0, metadata !99, i32 191} ; [ DW_TAG_subprogram ]
!405 = metadata !{i32 786453, i32 0, metadata !"", i32 0, i32 0, i64 0, i64 0, i64 0, i32 0, null, metadata !406, i32 0, i32 0} ; [ DW_TAG_subroutine_type ]
!406 = metadata !{null, metadata !407}
!407 = metadata !{i32 786447, i32 0, metadata !"", i32 0, i32 0, i64 64, i64 64, i64 0, i32 64, metadata !384} ; [ DW_TAG_pointer_type ]
!408 = metadata !{i32 786478, i32 0, metadata !384, metadata !"_M_set_sharable", metadata !"_M_set_sharable", metadata !"_ZNSs4_Rep15_M_set_sharableEv", metadata !299, i32 195, metadata !405, i1 false, i1 false, i32 0, i32 0, null, i32 256, i1 false, null, null, i32 0, metadata !99, i32 195} ; [ DW_TAG_subprogram ]
!409 = metadata !{i32 786478, i32 0, metadata !384, metadata !"_M_set_length_and_sharable", metadata !"_M_set_length_and_sharable", metadata !"_ZNSs4_Rep26_M_set_length_and_sharableEy", metadata !299, i32 199, metadata !410, i1 false, i1 false, i32 0, i32 0, null, i32 256, i1 false, null, null, i32 0, metadata !99, i32 199} ; [ DW_TAG_subprogram ]
!410 = metadata !{i32 786453, i32 0, metadata !"", i32 0, i32 0, i64 0, i64 0, i64 0, i32 0, null, metadata !411, i32 0, i32 0} ; [ DW_TAG_subroutine_type ]
!411 = metadata !{null, metadata !407, metadata !390}
!412 = metadata !{i32 786478, i32 0, metadata !384, metadata !"_M_refdata", metadata !"_M_refdata", metadata !"_ZNSs4_Rep10_M_refdataEv", metadata !299, i32 214, metadata !413, i1 false, i1 false, i32 0, i32 0, null, i32 256, i1 false, null, null, i32 0, metadata !99, i32 214} ; [ DW_TAG_subprogram ]
!413 = metadata !{i32 786453, i32 0, metadata !"", i32 0, i32 0, i64 0, i64 0, i64 0, i32 0, null, metadata !414, i32 0, i32 0} ; [ DW_TAG_subroutine_type ]
!414 = metadata !{metadata !200, metadata !407}
!415 = metadata !{i32 786478, i32 0, metadata !384, metadata !"_M_grab", metadata !"_M_grab", metadata !"_ZNSs4_Rep7_M_grabERKSaIcES2_", metadata !299, i32 218, metadata !416, i1 false, i1 false, i32 0, i32 0, null, i32 256, i1 false, null, null, i32 0, metadata !99, i32 218} ; [ DW_TAG_subprogram ]
!416 = metadata !{i32 786453, i32 0, metadata !"", i32 0, i32 0, i64 0, i64 0, i64 0, i32 0, null, metadata !417, i32 0, i32 0} ; [ DW_TAG_subroutine_type ]
!417 = metadata !{metadata !200, metadata !407, metadata !361, metadata !361}
!418 = metadata !{i32 786478, i32 0, metadata !384, metadata !"_S_create", metadata !"_S_create", metadata !"_ZNSs4_Rep9_S_createEyyRKSaIcE", metadata !299, i32 226, metadata !419, i1 false, i1 false, i32 0, i32 0, null, i32 256, i1 false, null, null, i32 0, metadata !99, i32 226} ; [ DW_TAG_subprogram ]
!419 = metadata !{i32 786453, i32 0, metadata !"", i32 0, i32 0, i64 0, i64 0, i64 0, i32 0, null, metadata !420, i32 0, i32 0} ; [ DW_TAG_subroutine_type ]
!420 = metadata !{metadata !383, metadata !390, metadata !390, metadata !361}
!421 = metadata !{i32 786478, i32 0, metadata !384, metadata !"_M_dispose", metadata !"_M_dispose", metadata !"_ZNSs4_Rep10_M_disposeERKSaIcE", metadata !299, i32 229, metadata !422, i1 false, i1 false, i32 0, i32 0, null, i32 256, i1 false, null, null, i32 0, metadata !99, i32 229} ; [ DW_TAG_subprogram ]
!422 = metadata !{i32 786453, i32 0, metadata !"", i32 0, i32 0, i64 0, i64 0, i64 0, i32 0, null, metadata !423, i32 0, i32 0} ; [ DW_TAG_subroutine_type ]
!423 = metadata !{null, metadata !407, metadata !361}
!424 = metadata !{i32 786478, i32 0, metadata !384, metadata !"_M_destroy", metadata !"_M_destroy", metadata !"_ZNSs4_Rep10_M_destroyERKSaIcE", metadata !299, i32 240, metadata !422, i1 false, i1 false, i32 0, i32 0, null, i32 256, i1 false, null, null, i32 0, metadata !99, i32 240} ; [ DW_TAG_subprogram ]
!425 = metadata !{i32 786478, i32 0, metadata !384, metadata !"_M_refcopy", metadata !"_M_refcopy", metadata !"_ZNSs4_Rep10_M_refcopyEv", metadata !299, i32 243, metadata !413, i1 false, i1 false, i32 0, i32 0, null, i32 256, i1 false, null, null, i32 0, metadata !99, i32 243} ; [ DW_TAG_subprogram ]
!426 = metadata !{i32 786478, i32 0, metadata !384, metadata !"_M_clone", metadata !"_M_clone", metadata !"_ZNSs4_Rep8_M_cloneERKSaIcEy", metadata !299, i32 253, metadata !427, i1 false, i1 false, i32 0, i32 0, null, i32 256, i1 false, null, null, i32 0, metadata !99, i32 253} ; [ DW_TAG_subprogram ]
!427 = metadata !{i32 786453, i32 0, metadata !"", i32 0, i32 0, i64 0, i64 0, i64 0, i32 0, null, metadata !428, i32 0, i32 0} ; [ DW_TAG_subroutine_type ]
!428 = metadata !{metadata !200, metadata !407, metadata !361, metadata !390}
!429 = metadata !{i32 786478, i32 0, metadata !295, metadata !"_M_ibegin", metadata !"_M_ibegin", metadata !"_ZNKSs9_M_ibeginEv", metadata !299, i32 291, metadata !430, i1 false, i1 false, i32 0, i32 0, null, i32 257, i1 false, null, null, i32 0, metadata !99, i32 291} ; [ DW_TAG_subprogram ]
!430 = metadata !{i32 786453, i32 0, metadata !"", i32 0, i32 0, i64 0, i64 0, i64 0, i32 0, null, metadata !431, i32 0, i32 0} ; [ DW_TAG_subroutine_type ]
!431 = metadata !{metadata !432, metadata !374}
!432 = metadata !{i32 786454, metadata !295, metadata !"iterator", metadata !296, i32 119, i64 0, i64 0, i64 0, i32 0, metadata !433} ; [ DW_TAG_typedef ]
!433 = metadata !{i32 786434, null, metadata !"__normal_iterator<char *, std::basic_string<char> >", metadata !434, i32 697, i32 0, i32 0, i32 0, i32 4, null, null, i32 0} ; [ DW_TAG_class_type ]
!434 = metadata !{i32 786473, metadata !"D:/Xilinx/Vivado_HLS/2016.2/win64/tools/clang/bin\5C..\5Clib\5Cclang\5C3.1/../../../include/c++/4.5.2\5Cbits/stl_iterator.h", metadata !"C:\5CUsers\5CMatthew\5CDesktop\5Cembs_open2", null} ; [ DW_TAG_file_type ]
!435 = metadata !{i32 786478, i32 0, metadata !295, metadata !"_M_iend", metadata !"_M_iend", metadata !"_ZNKSs7_M_iendEv", metadata !299, i32 295, metadata !430, i1 false, i1 false, i32 0, i32 0, null, i32 257, i1 false, null, null, i32 0, metadata !99, i32 295} ; [ DW_TAG_subprogram ]
!436 = metadata !{i32 786478, i32 0, metadata !295, metadata !"_M_leak", metadata !"_M_leak", metadata !"_ZNSs7_M_leakEv", metadata !299, i32 299, metadata !437, i1 false, i1 false, i32 0, i32 0, null, i32 257, i1 false, null, null, i32 0, metadata !99, i32 299} ; [ DW_TAG_subprogram ]
!437 = metadata !{i32 786453, i32 0, metadata !"", i32 0, i32 0, i64 0, i64 0, i64 0, i32 0, null, metadata !438, i32 0, i32 0} ; [ DW_TAG_subroutine_type ]
!438 = metadata !{null, metadata !379}
!439 = metadata !{i32 786478, i32 0, metadata !295, metadata !"_M_check", metadata !"_M_check", metadata !"_ZNKSs8_M_checkEyPKc", metadata !299, i32 306, metadata !440, i1 false, i1 false, i32 0, i32 0, null, i32 257, i1 false, null, null, i32 0, metadata !99, i32 306} ; [ DW_TAG_subprogram ]
!440 = metadata !{i32 786453, i32 0, metadata !"", i32 0, i32 0, i64 0, i64 0, i64 0, i32 0, null, metadata !441, i32 0, i32 0} ; [ DW_TAG_subroutine_type ]
!441 = metadata !{metadata !390, metadata !374, metadata !390, metadata !163}
!442 = metadata !{i32 786478, i32 0, metadata !295, metadata !"_M_check_length", metadata !"_M_check_length", metadata !"_ZNKSs15_M_check_lengthEyyPKc", metadata !299, i32 314, metadata !443, i1 false, i1 false, i32 0, i32 0, null, i32 257, i1 false, null, null, i32 0, metadata !99, i32 314} ; [ DW_TAG_subprogram ]
!443 = metadata !{i32 786453, i32 0, metadata !"", i32 0, i32 0, i64 0, i64 0, i64 0, i32 0, null, metadata !444, i32 0, i32 0} ; [ DW_TAG_subroutine_type ]
!444 = metadata !{null, metadata !374, metadata !390, metadata !390, metadata !163}
!445 = metadata !{i32 786478, i32 0, metadata !295, metadata !"_M_limit", metadata !"_M_limit", metadata !"_ZNKSs8_M_limitEyy", metadata !299, i32 322, metadata !446, i1 false, i1 false, i32 0, i32 0, null, i32 257, i1 false, null, null, i32 0, metadata !99, i32 322} ; [ DW_TAG_subprogram ]
!446 = metadata !{i32 786453, i32 0, metadata !"", i32 0, i32 0, i64 0, i64 0, i64 0, i32 0, null, metadata !447, i32 0, i32 0} ; [ DW_TAG_subroutine_type ]
!447 = metadata !{metadata !390, metadata !374, metadata !390, metadata !390}
!448 = metadata !{i32 786478, i32 0, metadata !295, metadata !"_M_disjunct", metadata !"_M_disjunct", metadata !"_ZNKSs11_M_disjunctEPKc", metadata !299, i32 330, metadata !449, i1 false, i1 false, i32 0, i32 0, null, i32 257, i1 false, null, null, i32 0, metadata !99, i32 330} ; [ DW_TAG_subprogram ]
!449 = metadata !{i32 786453, i32 0, metadata !"", i32 0, i32 0, i64 0, i64 0, i64 0, i32 0, null, metadata !450, i32 0, i32 0} ; [ DW_TAG_subroutine_type ]
!450 = metadata !{metadata !225, metadata !374, metadata !163}
!451 = metadata !{i32 786478, i32 0, metadata !295, metadata !"_M_copy", metadata !"_M_copy", metadata !"_ZNSs7_M_copyEPcPKcy", metadata !299, i32 339, metadata !452, i1 false, i1 false, i32 0, i32 0, null, i32 257, i1 false, null, null, i32 0, metadata !99, i32 339} ; [ DW_TAG_subprogram ]
!452 = metadata !{i32 786453, i32 0, metadata !"", i32 0, i32 0, i64 0, i64 0, i64 0, i32 0, null, metadata !453, i32 0, i32 0} ; [ DW_TAG_subroutine_type ]
!453 = metadata !{null, metadata !200, metadata !163, metadata !390}
!454 = metadata !{i32 786478, i32 0, metadata !295, metadata !"_M_move", metadata !"_M_move", metadata !"_ZNSs7_M_moveEPcPKcy", metadata !299, i32 348, metadata !452, i1 false, i1 false, i32 0, i32 0, null, i32 257, i1 false, null, null, i32 0, metadata !99, i32 348} ; [ DW_TAG_subprogram ]
!455 = metadata !{i32 786478, i32 0, metadata !295, metadata !"_M_assign", metadata !"_M_assign", metadata !"_ZNSs9_M_assignEPcyc", metadata !299, i32 357, metadata !456, i1 false, i1 false, i32 0, i32 0, null, i32 257, i1 false, null, null, i32 0, metadata !99, i32 357} ; [ DW_TAG_subprogram ]
!456 = metadata !{i32 786453, i32 0, metadata !"", i32 0, i32 0, i64 0, i64 0, i64 0, i32 0, null, metadata !457, i32 0, i32 0} ; [ DW_TAG_subroutine_type ]
!457 = metadata !{null, metadata !200, metadata !390, metadata !165}
!458 = metadata !{i32 786478, i32 0, metadata !295, metadata !"_S_copy_chars", metadata !"_S_copy_chars", metadata !"_ZNSs13_S_copy_charsEPcN9__gnu_cxx17__normal_iteratorIS_SsEES2_", metadata !299, i32 376, metadata !459, i1 false, i1 false, i32 0, i32 0, null, i32 257, i1 false, null, null, i32 0, metadata !99, i32 376} ; [ DW_TAG_subprogram ]
!459 = metadata !{i32 786453, i32 0, metadata !"", i32 0, i32 0, i64 0, i64 0, i64 0, i32 0, null, metadata !460, i32 0, i32 0} ; [ DW_TAG_subroutine_type ]
!460 = metadata !{null, metadata !200, metadata !432, metadata !432}
!461 = metadata !{i32 786478, i32 0, metadata !295, metadata !"_S_copy_chars", metadata !"_S_copy_chars", metadata !"_ZNSs13_S_copy_charsEPcN9__gnu_cxx17__normal_iteratorIPKcSsEES4_", metadata !299, i32 380, metadata !462, i1 false, i1 false, i32 0, i32 0, null, i32 257, i1 false, null, null, i32 0, metadata !99, i32 380} ; [ DW_TAG_subprogram ]
!462 = metadata !{i32 786453, i32 0, metadata !"", i32 0, i32 0, i64 0, i64 0, i64 0, i32 0, null, metadata !463, i32 0, i32 0} ; [ DW_TAG_subroutine_type ]
!463 = metadata !{null, metadata !200, metadata !464, metadata !464}
!464 = metadata !{i32 786454, metadata !295, metadata !"const_iterator", metadata !296, i32 121, i64 0, i64 0, i64 0, i32 0, metadata !465} ; [ DW_TAG_typedef ]
!465 = metadata !{i32 786434, null, metadata !"__normal_iterator<const char *, std::basic_string<char> >", metadata !434, i32 697, i32 0, i32 0, i32 0, i32 4, null, null, i32 0} ; [ DW_TAG_class_type ]
!466 = metadata !{i32 786478, i32 0, metadata !295, metadata !"_S_copy_chars", metadata !"_S_copy_chars", metadata !"_ZNSs13_S_copy_charsEPcS_S_", metadata !299, i32 384, metadata !467, i1 false, i1 false, i32 0, i32 0, null, i32 257, i1 false, null, null, i32 0, metadata !99, i32 384} ; [ DW_TAG_subprogram ]
!467 = metadata !{i32 786453, i32 0, metadata !"", i32 0, i32 0, i64 0, i64 0, i64 0, i32 0, null, metadata !468, i32 0, i32 0} ; [ DW_TAG_subroutine_type ]
!468 = metadata !{null, metadata !200, metadata !200, metadata !200}
!469 = metadata !{i32 786478, i32 0, metadata !295, metadata !"_S_copy_chars", metadata !"_S_copy_chars", metadata !"_ZNSs13_S_copy_charsEPcPKcS1_", metadata !299, i32 388, metadata !470, i1 false, i1 false, i32 0, i32 0, null, i32 257, i1 false, null, null, i32 0, metadata !99, i32 388} ; [ DW_TAG_subprogram ]
!470 = metadata !{i32 786453, i32 0, metadata !"", i32 0, i32 0, i64 0, i64 0, i64 0, i32 0, null, metadata !471, i32 0, i32 0} ; [ DW_TAG_subroutine_type ]
!471 = metadata !{null, metadata !200, metadata !163, metadata !163}
!472 = metadata !{i32 786478, i32 0, metadata !295, metadata !"_S_compare", metadata !"_S_compare", metadata !"_ZNSs10_S_compareEyy", metadata !299, i32 392, metadata !473, i1 false, i1 false, i32 0, i32 0, null, i32 257, i1 false, null, null, i32 0, metadata !99, i32 392} ; [ DW_TAG_subprogram ]
!473 = metadata !{i32 786453, i32 0, metadata !"", i32 0, i32 0, i64 0, i64 0, i64 0, i32 0, null, metadata !474, i32 0, i32 0} ; [ DW_TAG_subroutine_type ]
!474 = metadata !{metadata !35, metadata !390, metadata !390}
!475 = metadata !{i32 786478, i32 0, metadata !295, metadata !"_M_mutate", metadata !"_M_mutate", metadata !"_ZNSs9_M_mutateEyyy", metadata !299, i32 405, metadata !476, i1 false, i1 false, i32 0, i32 0, null, i32 257, i1 false, null, null, i32 0, metadata !99, i32 405} ; [ DW_TAG_subprogram ]
!476 = metadata !{i32 786453, i32 0, metadata !"", i32 0, i32 0, i64 0, i64 0, i64 0, i32 0, null, metadata !477, i32 0, i32 0} ; [ DW_TAG_subroutine_type ]
!477 = metadata !{null, metadata !379, metadata !390, metadata !390, metadata !390}
!478 = metadata !{i32 786478, i32 0, metadata !295, metadata !"_M_leak_hard", metadata !"_M_leak_hard", metadata !"_ZNSs12_M_leak_hardEv", metadata !299, i32 408, metadata !437, i1 false, i1 false, i32 0, i32 0, null, i32 257, i1 false, null, null, i32 0, metadata !99, i32 408} ; [ DW_TAG_subprogram ]
!479 = metadata !{i32 786478, i32 0, metadata !295, metadata !"_S_empty_rep", metadata !"_S_empty_rep", metadata !"_ZNSs12_S_empty_repEv", metadata !299, i32 411, metadata !395, i1 false, i1 false, i32 0, i32 0, null, i32 257, i1 false, null, null, i32 0, metadata !99, i32 411} ; [ DW_TAG_subprogram ]
!480 = metadata !{i32 786478, i32 0, metadata !295, metadata !"basic_string", metadata !"basic_string", metadata !"", metadata !299, i32 422, metadata !437, i1 false, i1 false, i32 0, i32 0, null, i32 256, i1 false, null, null, i32 0, metadata !99, i32 422} ; [ DW_TAG_subprogram ]
!481 = metadata !{i32 786478, i32 0, metadata !295, metadata !"basic_string", metadata !"basic_string", metadata !"", metadata !299, i32 433, metadata !482, i1 false, i1 false, i32 0, i32 0, null, i32 384, i1 false, null, null, i32 0, metadata !99, i32 433} ; [ DW_TAG_subprogram ]
!482 = metadata !{i32 786453, i32 0, metadata !"", i32 0, i32 0, i64 0, i64 0, i64 0, i32 0, null, metadata !483, i32 0, i32 0} ; [ DW_TAG_subroutine_type ]
!483 = metadata !{null, metadata !379, metadata !361}
!484 = metadata !{i32 786478, i32 0, metadata !295, metadata !"basic_string", metadata !"basic_string", metadata !"", metadata !299, i32 440, metadata !485, i1 false, i1 false, i32 0, i32 0, null, i32 256, i1 false, null, null, i32 0, metadata !99, i32 440} ; [ DW_TAG_subprogram ]
!485 = metadata !{i32 786453, i32 0, metadata !"", i32 0, i32 0, i64 0, i64 0, i64 0, i32 0, null, metadata !486, i32 0, i32 0} ; [ DW_TAG_subroutine_type ]
!486 = metadata !{null, metadata !379, metadata !487}
!487 = metadata !{i32 786448, null, null, null, i32 0, i64 0, i64 0, i64 0, i32 0, metadata !375} ; [ DW_TAG_reference_type ]
!488 = metadata !{i32 786478, i32 0, metadata !295, metadata !"basic_string", metadata !"basic_string", metadata !"", metadata !299, i32 447, metadata !489, i1 false, i1 false, i32 0, i32 0, null, i32 256, i1 false, null, null, i32 0, metadata !99, i32 447} ; [ DW_TAG_subprogram ]
!489 = metadata !{i32 786453, i32 0, metadata !"", i32 0, i32 0, i64 0, i64 0, i64 0, i32 0, null, metadata !490, i32 0, i32 0} ; [ DW_TAG_subroutine_type ]
!490 = metadata !{null, metadata !379, metadata !487, metadata !390, metadata !390}
!491 = metadata !{i32 786478, i32 0, metadata !295, metadata !"basic_string", metadata !"basic_string", metadata !"", metadata !299, i32 456, metadata !492, i1 false, i1 false, i32 0, i32 0, null, i32 256, i1 false, null, null, i32 0, metadata !99, i32 456} ; [ DW_TAG_subprogram ]
!492 = metadata !{i32 786453, i32 0, metadata !"", i32 0, i32 0, i64 0, i64 0, i64 0, i32 0, null, metadata !493, i32 0, i32 0} ; [ DW_TAG_subroutine_type ]
!493 = metadata !{null, metadata !379, metadata !487, metadata !390, metadata !390, metadata !361}
!494 = metadata !{i32 786478, i32 0, metadata !295, metadata !"basic_string", metadata !"basic_string", metadata !"", metadata !299, i32 468, metadata !495, i1 false, i1 false, i32 0, i32 0, null, i32 256, i1 false, null, null, i32 0, metadata !99, i32 468} ; [ DW_TAG_subprogram ]
!495 = metadata !{i32 786453, i32 0, metadata !"", i32 0, i32 0, i64 0, i64 0, i64 0, i32 0, null, metadata !496, i32 0, i32 0} ; [ DW_TAG_subroutine_type ]
!496 = metadata !{null, metadata !379, metadata !163, metadata !390, metadata !361}
!497 = metadata !{i32 786478, i32 0, metadata !295, metadata !"basic_string", metadata !"basic_string", metadata !"", metadata !299, i32 475, metadata !498, i1 false, i1 false, i32 0, i32 0, null, i32 256, i1 false, null, null, i32 0, metadata !99, i32 475} ; [ DW_TAG_subprogram ]
!498 = metadata !{i32 786453, i32 0, metadata !"", i32 0, i32 0, i64 0, i64 0, i64 0, i32 0, null, metadata !499, i32 0, i32 0} ; [ DW_TAG_subroutine_type ]
!499 = metadata !{null, metadata !379, metadata !163, metadata !361}
!500 = metadata !{i32 786478, i32 0, metadata !295, metadata !"basic_string", metadata !"basic_string", metadata !"", metadata !299, i32 482, metadata !501, i1 false, i1 false, i32 0, i32 0, null, i32 256, i1 false, null, null, i32 0, metadata !99, i32 482} ; [ DW_TAG_subprogram ]
!501 = metadata !{i32 786453, i32 0, metadata !"", i32 0, i32 0, i64 0, i64 0, i64 0, i32 0, null, metadata !502, i32 0, i32 0} ; [ DW_TAG_subroutine_type ]
!502 = metadata !{null, metadata !379, metadata !390, metadata !165, metadata !361}
!503 = metadata !{i32 786478, i32 0, metadata !295, metadata !"~basic_string", metadata !"~basic_string", metadata !"", metadata !299, i32 523, metadata !437, i1 false, i1 false, i32 0, i32 0, null, i32 256, i1 false, null, null, i32 0, metadata !99, i32 523} ; [ DW_TAG_subprogram ]
!504 = metadata !{i32 786478, i32 0, metadata !295, metadata !"operator=", metadata !"operator=", metadata !"_ZNSsaSERKSs", metadata !299, i32 531, metadata !505, i1 false, i1 false, i32 0, i32 0, null, i32 256, i1 false, null, null, i32 0, metadata !99, i32 531} ; [ DW_TAG_subprogram ]
!505 = metadata !{i32 786453, i32 0, metadata !"", i32 0, i32 0, i64 0, i64 0, i64 0, i32 0, null, metadata !506, i32 0, i32 0} ; [ DW_TAG_subroutine_type ]
!506 = metadata !{metadata !507, metadata !379, metadata !487}
!507 = metadata !{i32 786448, null, null, null, i32 0, i64 0, i64 0, i64 0, i32 0, metadata !295} ; [ DW_TAG_reference_type ]
!508 = metadata !{i32 786478, i32 0, metadata !295, metadata !"operator=", metadata !"operator=", metadata !"_ZNSsaSEPKc", metadata !299, i32 539, metadata !509, i1 false, i1 false, i32 0, i32 0, null, i32 256, i1 false, null, null, i32 0, metadata !99, i32 539} ; [ DW_TAG_subprogram ]
!509 = metadata !{i32 786453, i32 0, metadata !"", i32 0, i32 0, i64 0, i64 0, i64 0, i32 0, null, metadata !510, i32 0, i32 0} ; [ DW_TAG_subroutine_type ]
!510 = metadata !{metadata !507, metadata !379, metadata !163}
!511 = metadata !{i32 786478, i32 0, metadata !295, metadata !"operator=", metadata !"operator=", metadata !"_ZNSsaSEc", metadata !299, i32 550, metadata !512, i1 false, i1 false, i32 0, i32 0, null, i32 256, i1 false, null, null, i32 0, metadata !99, i32 550} ; [ DW_TAG_subprogram ]
!512 = metadata !{i32 786453, i32 0, metadata !"", i32 0, i32 0, i64 0, i64 0, i64 0, i32 0, null, metadata !513, i32 0, i32 0} ; [ DW_TAG_subroutine_type ]
!513 = metadata !{metadata !507, metadata !379, metadata !165}
!514 = metadata !{i32 786478, i32 0, metadata !295, metadata !"begin", metadata !"begin", metadata !"_ZNSs5beginEv", metadata !299, i32 590, metadata !515, i1 false, i1 false, i32 0, i32 0, null, i32 256, i1 false, null, null, i32 0, metadata !99, i32 590} ; [ DW_TAG_subprogram ]
!515 = metadata !{i32 786453, i32 0, metadata !"", i32 0, i32 0, i64 0, i64 0, i64 0, i32 0, null, metadata !516, i32 0, i32 0} ; [ DW_TAG_subroutine_type ]
!516 = metadata !{metadata !432, metadata !379}
!517 = metadata !{i32 786478, i32 0, metadata !295, metadata !"begin", metadata !"begin", metadata !"_ZNKSs5beginEv", metadata !299, i32 601, metadata !518, i1 false, i1 false, i32 0, i32 0, null, i32 256, i1 false, null, null, i32 0, metadata !99, i32 601} ; [ DW_TAG_subprogram ]
!518 = metadata !{i32 786453, i32 0, metadata !"", i32 0, i32 0, i64 0, i64 0, i64 0, i32 0, null, metadata !519, i32 0, i32 0} ; [ DW_TAG_subroutine_type ]
!519 = metadata !{metadata !464, metadata !374}
!520 = metadata !{i32 786478, i32 0, metadata !295, metadata !"end", metadata !"end", metadata !"_ZNSs3endEv", metadata !299, i32 609, metadata !515, i1 false, i1 false, i32 0, i32 0, null, i32 256, i1 false, null, null, i32 0, metadata !99, i32 609} ; [ DW_TAG_subprogram ]
!521 = metadata !{i32 786478, i32 0, metadata !295, metadata !"end", metadata !"end", metadata !"_ZNKSs3endEv", metadata !299, i32 620, metadata !518, i1 false, i1 false, i32 0, i32 0, null, i32 256, i1 false, null, null, i32 0, metadata !99, i32 620} ; [ DW_TAG_subprogram ]
!522 = metadata !{i32 786478, i32 0, metadata !295, metadata !"rbegin", metadata !"rbegin", metadata !"_ZNSs6rbeginEv", metadata !299, i32 629, metadata !523, i1 false, i1 false, i32 0, i32 0, null, i32 256, i1 false, null, null, i32 0, metadata !99, i32 629} ; [ DW_TAG_subprogram ]
!523 = metadata !{i32 786453, i32 0, metadata !"", i32 0, i32 0, i64 0, i64 0, i64 0, i32 0, null, metadata !524, i32 0, i32 0} ; [ DW_TAG_subroutine_type ]
!524 = metadata !{metadata !525, metadata !379}
!525 = metadata !{i32 786454, metadata !295, metadata !"reverse_iterator", metadata !296, i32 123, i64 0, i64 0, i64 0, i32 0, metadata !526} ; [ DW_TAG_typedef ]
!526 = metadata !{i32 786434, null, metadata !"reverse_iterator<__gnu_cxx::__normal_iterator<char *, std::basic_string<char> > >", metadata !434, i32 95, i32 0, i32 0, i32 0, i32 4, null, null, i32 0} ; [ DW_TAG_class_type ]
!527 = metadata !{i32 786478, i32 0, metadata !295, metadata !"rbegin", metadata !"rbegin", metadata !"_ZNKSs6rbeginEv", metadata !299, i32 638, metadata !528, i1 false, i1 false, i32 0, i32 0, null, i32 256, i1 false, null, null, i32 0, metadata !99, i32 638} ; [ DW_TAG_subprogram ]
!528 = metadata !{i32 786453, i32 0, metadata !"", i32 0, i32 0, i64 0, i64 0, i64 0, i32 0, null, metadata !529, i32 0, i32 0} ; [ DW_TAG_subroutine_type ]
!529 = metadata !{metadata !530, metadata !374}
!530 = metadata !{i32 786454, metadata !295, metadata !"const_reverse_iterator", metadata !296, i32 122, i64 0, i64 0, i64 0, i32 0, metadata !531} ; [ DW_TAG_typedef ]
!531 = metadata !{i32 786434, null, metadata !"reverse_iterator<__gnu_cxx::__normal_iterator<const char *, std::basic_string<char> > >", metadata !434, i32 95, i32 0, i32 0, i32 0, i32 4, null, null, i32 0} ; [ DW_TAG_class_type ]
!532 = metadata !{i32 786478, i32 0, metadata !295, metadata !"rend", metadata !"rend", metadata !"_ZNSs4rendEv", metadata !299, i32 647, metadata !523, i1 false, i1 false, i32 0, i32 0, null, i32 256, i1 false, null, null, i32 0, metadata !99, i32 647} ; [ DW_TAG_subprogram ]
!533 = metadata !{i32 786478, i32 0, metadata !295, metadata !"rend", metadata !"rend", metadata !"_ZNKSs4rendEv", metadata !299, i32 656, metadata !528, i1 false, i1 false, i32 0, i32 0, null, i32 256, i1 false, null, null, i32 0, metadata !99, i32 656} ; [ DW_TAG_subprogram ]
!534 = metadata !{i32 786478, i32 0, metadata !295, metadata !"size", metadata !"size", metadata !"_ZNKSs4sizeEv", metadata !299, i32 700, metadata !535, i1 false, i1 false, i32 0, i32 0, null, i32 256, i1 false, null, null, i32 0, metadata !99, i32 700} ; [ DW_TAG_subprogram ]
!535 = metadata !{i32 786453, i32 0, metadata !"", i32 0, i32 0, i64 0, i64 0, i64 0, i32 0, null, metadata !536, i32 0, i32 0} ; [ DW_TAG_subroutine_type ]
!536 = metadata !{metadata !390, metadata !374}
!537 = metadata !{i32 786478, i32 0, metadata !295, metadata !"length", metadata !"length", metadata !"_ZNKSs6lengthEv", metadata !299, i32 706, metadata !535, i1 false, i1 false, i32 0, i32 0, null, i32 256, i1 false, null, null, i32 0, metadata !99, i32 706} ; [ DW_TAG_subprogram ]
!538 = metadata !{i32 786478, i32 0, metadata !295, metadata !"max_size", metadata !"max_size", metadata !"_ZNKSs8max_sizeEv", metadata !299, i32 711, metadata !535, i1 false, i1 false, i32 0, i32 0, null, i32 256, i1 false, null, null, i32 0, metadata !99, i32 711} ; [ DW_TAG_subprogram ]
!539 = metadata !{i32 786478, i32 0, metadata !295, metadata !"resize", metadata !"resize", metadata !"_ZNSs6resizeEyc", metadata !299, i32 725, metadata !540, i1 false, i1 false, i32 0, i32 0, null, i32 256, i1 false, null, null, i32 0, metadata !99, i32 725} ; [ DW_TAG_subprogram ]
!540 = metadata !{i32 786453, i32 0, metadata !"", i32 0, i32 0, i64 0, i64 0, i64 0, i32 0, null, metadata !541, i32 0, i32 0} ; [ DW_TAG_subroutine_type ]
!541 = metadata !{null, metadata !379, metadata !390, metadata !165}
!542 = metadata !{i32 786478, i32 0, metadata !295, metadata !"resize", metadata !"resize", metadata !"_ZNSs6resizeEy", metadata !299, i32 738, metadata !543, i1 false, i1 false, i32 0, i32 0, null, i32 256, i1 false, null, null, i32 0, metadata !99, i32 738} ; [ DW_TAG_subprogram ]
!543 = metadata !{i32 786453, i32 0, metadata !"", i32 0, i32 0, i64 0, i64 0, i64 0, i32 0, null, metadata !544, i32 0, i32 0} ; [ DW_TAG_subroutine_type ]
!544 = metadata !{null, metadata !379, metadata !390}
!545 = metadata !{i32 786478, i32 0, metadata !295, metadata !"capacity", metadata !"capacity", metadata !"_ZNKSs8capacityEv", metadata !299, i32 758, metadata !535, i1 false, i1 false, i32 0, i32 0, null, i32 256, i1 false, null, null, i32 0, metadata !99, i32 758} ; [ DW_TAG_subprogram ]
!546 = metadata !{i32 786478, i32 0, metadata !295, metadata !"reserve", metadata !"reserve", metadata !"_ZNSs7reserveEy", metadata !299, i32 779, metadata !543, i1 false, i1 false, i32 0, i32 0, null, i32 256, i1 false, null, null, i32 0, metadata !99, i32 779} ; [ DW_TAG_subprogram ]
!547 = metadata !{i32 786478, i32 0, metadata !295, metadata !"clear", metadata !"clear", metadata !"_ZNSs5clearEv", metadata !299, i32 785, metadata !437, i1 false, i1 false, i32 0, i32 0, null, i32 256, i1 false, null, null, i32 0, metadata !99, i32 785} ; [ DW_TAG_subprogram ]
!548 = metadata !{i32 786478, i32 0, metadata !295, metadata !"empty", metadata !"empty", metadata !"_ZNKSs5emptyEv", metadata !299, i32 793, metadata !549, i1 false, i1 false, i32 0, i32 0, null, i32 256, i1 false, null, null, i32 0, metadata !99, i32 793} ; [ DW_TAG_subprogram ]
!549 = metadata !{i32 786453, i32 0, metadata !"", i32 0, i32 0, i64 0, i64 0, i64 0, i32 0, null, metadata !550, i32 0, i32 0} ; [ DW_TAG_subroutine_type ]
!550 = metadata !{metadata !225, metadata !374}
!551 = metadata !{i32 786478, i32 0, metadata !295, metadata !"operator[]", metadata !"operator[]", metadata !"_ZNKSsixEy", metadata !299, i32 808, metadata !552, i1 false, i1 false, i32 0, i32 0, null, i32 256, i1 false, null, null, i32 0, metadata !99, i32 808} ; [ DW_TAG_subprogram ]
!552 = metadata !{i32 786453, i32 0, metadata !"", i32 0, i32 0, i64 0, i64 0, i64 0, i32 0, null, metadata !553, i32 0, i32 0} ; [ DW_TAG_subroutine_type ]
!553 = metadata !{metadata !554, metadata !374, metadata !390}
!554 = metadata !{i32 786454, metadata !295, metadata !"const_reference", metadata !296, i32 116, i64 0, i64 0, i64 0, i32 0, metadata !555} ; [ DW_TAG_typedef ]
!555 = metadata !{i32 786454, metadata !303, metadata !"const_reference", metadata !296, i32 94, i64 0, i64 0, i64 0, i32 0, metadata !333} ; [ DW_TAG_typedef ]
!556 = metadata !{i32 786478, i32 0, metadata !295, metadata !"operator[]", metadata !"operator[]", metadata !"_ZNSsixEy", metadata !299, i32 825, metadata !557, i1 false, i1 false, i32 0, i32 0, null, i32 256, i1 false, null, null, i32 0, metadata !99, i32 825} ; [ DW_TAG_subprogram ]
!557 = metadata !{i32 786453, i32 0, metadata !"", i32 0, i32 0, i64 0, i64 0, i64 0, i32 0, null, metadata !558, i32 0, i32 0} ; [ DW_TAG_subroutine_type ]
!558 = metadata !{metadata !559, metadata !379, metadata !390}
!559 = metadata !{i32 786454, metadata !295, metadata !"reference", metadata !296, i32 115, i64 0, i64 0, i64 0, i32 0, metadata !560} ; [ DW_TAG_typedef ]
!560 = metadata !{i32 786454, metadata !303, metadata !"reference", metadata !296, i32 93, i64 0, i64 0, i64 0, i32 0, metadata !327} ; [ DW_TAG_typedef ]
!561 = metadata !{i32 786478, i32 0, metadata !295, metadata !"at", metadata !"at", metadata !"_ZNKSs2atEy", metadata !299, i32 846, metadata !552, i1 false, i1 false, i32 0, i32 0, null, i32 256, i1 false, null, null, i32 0, metadata !99, i32 846} ; [ DW_TAG_subprogram ]
!562 = metadata !{i32 786478, i32 0, metadata !295, metadata !"at", metadata !"at", metadata !"_ZNSs2atEy", metadata !299, i32 865, metadata !557, i1 false, i1 false, i32 0, i32 0, null, i32 256, i1 false, null, null, i32 0, metadata !99, i32 865} ; [ DW_TAG_subprogram ]
!563 = metadata !{i32 786478, i32 0, metadata !295, metadata !"operator+=", metadata !"operator+=", metadata !"_ZNSspLERKSs", metadata !299, i32 880, metadata !505, i1 false, i1 false, i32 0, i32 0, null, i32 256, i1 false, null, null, i32 0, metadata !99, i32 880} ; [ DW_TAG_subprogram ]
!564 = metadata !{i32 786478, i32 0, metadata !295, metadata !"operator+=", metadata !"operator+=", metadata !"_ZNSspLEPKc", metadata !299, i32 889, metadata !509, i1 false, i1 false, i32 0, i32 0, null, i32 256, i1 false, null, null, i32 0, metadata !99, i32 889} ; [ DW_TAG_subprogram ]
!565 = metadata !{i32 786478, i32 0, metadata !295, metadata !"operator+=", metadata !"operator+=", metadata !"_ZNSspLEc", metadata !299, i32 898, metadata !512, i1 false, i1 false, i32 0, i32 0, null, i32 256, i1 false, null, null, i32 0, metadata !99, i32 898} ; [ DW_TAG_subprogram ]
!566 = metadata !{i32 786478, i32 0, metadata !295, metadata !"append", metadata !"append", metadata !"_ZNSs6appendERKSs", metadata !299, i32 921, metadata !505, i1 false, i1 false, i32 0, i32 0, null, i32 256, i1 false, null, null, i32 0, metadata !99, i32 921} ; [ DW_TAG_subprogram ]
!567 = metadata !{i32 786478, i32 0, metadata !295, metadata !"append", metadata !"append", metadata !"_ZNSs6appendERKSsyy", metadata !299, i32 936, metadata !568, i1 false, i1 false, i32 0, i32 0, null, i32 256, i1 false, null, null, i32 0, metadata !99, i32 936} ; [ DW_TAG_subprogram ]
!568 = metadata !{i32 786453, i32 0, metadata !"", i32 0, i32 0, i64 0, i64 0, i64 0, i32 0, null, metadata !569, i32 0, i32 0} ; [ DW_TAG_subroutine_type ]
!569 = metadata !{metadata !507, metadata !379, metadata !487, metadata !390, metadata !390}
!570 = metadata !{i32 786478, i32 0, metadata !295, metadata !"append", metadata !"append", metadata !"_ZNSs6appendEPKcy", metadata !299, i32 945, metadata !571, i1 false, i1 false, i32 0, i32 0, null, i32 256, i1 false, null, null, i32 0, metadata !99, i32 945} ; [ DW_TAG_subprogram ]
!571 = metadata !{i32 786453, i32 0, metadata !"", i32 0, i32 0, i64 0, i64 0, i64 0, i32 0, null, metadata !572, i32 0, i32 0} ; [ DW_TAG_subroutine_type ]
!572 = metadata !{metadata !507, metadata !379, metadata !163, metadata !390}
!573 = metadata !{i32 786478, i32 0, metadata !295, metadata !"append", metadata !"append", metadata !"_ZNSs6appendEPKc", metadata !299, i32 953, metadata !509, i1 false, i1 false, i32 0, i32 0, null, i32 256, i1 false, null, null, i32 0, metadata !99, i32 953} ; [ DW_TAG_subprogram ]
!574 = metadata !{i32 786478, i32 0, metadata !295, metadata !"append", metadata !"append", metadata !"_ZNSs6appendEyc", metadata !299, i32 968, metadata !575, i1 false, i1 false, i32 0, i32 0, null, i32 256, i1 false, null, null, i32 0, metadata !99, i32 968} ; [ DW_TAG_subprogram ]
!575 = metadata !{i32 786453, i32 0, metadata !"", i32 0, i32 0, i64 0, i64 0, i64 0, i32 0, null, metadata !576, i32 0, i32 0} ; [ DW_TAG_subroutine_type ]
!576 = metadata !{metadata !507, metadata !379, metadata !390, metadata !165}
!577 = metadata !{i32 786478, i32 0, metadata !295, metadata !"push_back", metadata !"push_back", metadata !"_ZNSs9push_backEc", metadata !299, i32 999, metadata !578, i1 false, i1 false, i32 0, i32 0, null, i32 256, i1 false, null, null, i32 0, metadata !99, i32 999} ; [ DW_TAG_subprogram ]
!578 = metadata !{i32 786453, i32 0, metadata !"", i32 0, i32 0, i64 0, i64 0, i64 0, i32 0, null, metadata !579, i32 0, i32 0} ; [ DW_TAG_subroutine_type ]
!579 = metadata !{null, metadata !379, metadata !165}
!580 = metadata !{i32 786478, i32 0, metadata !295, metadata !"assign", metadata !"assign", metadata !"_ZNSs6assignERKSs", metadata !299, i32 1014, metadata !505, i1 false, i1 false, i32 0, i32 0, null, i32 256, i1 false, null, null, i32 0, metadata !99, i32 1014} ; [ DW_TAG_subprogram ]
!581 = metadata !{i32 786478, i32 0, metadata !295, metadata !"assign", metadata !"assign", metadata !"_ZNSs6assignERKSsyy", metadata !299, i32 1046, metadata !568, i1 false, i1 false, i32 0, i32 0, null, i32 256, i1 false, null, null, i32 0, metadata !99, i32 1046} ; [ DW_TAG_subprogram ]
!582 = metadata !{i32 786478, i32 0, metadata !295, metadata !"assign", metadata !"assign", metadata !"_ZNSs6assignEPKcy", metadata !299, i32 1062, metadata !571, i1 false, i1 false, i32 0, i32 0, null, i32 256, i1 false, null, null, i32 0, metadata !99, i32 1062} ; [ DW_TAG_subprogram ]
!583 = metadata !{i32 786478, i32 0, metadata !295, metadata !"assign", metadata !"assign", metadata !"_ZNSs6assignEPKc", metadata !299, i32 1074, metadata !509, i1 false, i1 false, i32 0, i32 0, null, i32 256, i1 false, null, null, i32 0, metadata !99, i32 1074} ; [ DW_TAG_subprogram ]
!584 = metadata !{i32 786478, i32 0, metadata !295, metadata !"assign", metadata !"assign", metadata !"_ZNSs6assignEyc", metadata !299, i32 1090, metadata !575, i1 false, i1 false, i32 0, i32 0, null, i32 256, i1 false, null, null, i32 0, metadata !99, i32 1090} ; [ DW_TAG_subprogram ]
!585 = metadata !{i32 786478, i32 0, metadata !295, metadata !"insert", metadata !"insert", metadata !"_ZNSs6insertEN9__gnu_cxx17__normal_iteratorIPcSsEEyc", metadata !299, i32 1130, metadata !586, i1 false, i1 false, i32 0, i32 0, null, i32 256, i1 false, null, null, i32 0, metadata !99, i32 1130} ; [ DW_TAG_subprogram ]
!586 = metadata !{i32 786453, i32 0, metadata !"", i32 0, i32 0, i64 0, i64 0, i64 0, i32 0, null, metadata !587, i32 0, i32 0} ; [ DW_TAG_subroutine_type ]
!587 = metadata !{null, metadata !379, metadata !432, metadata !390, metadata !165}
!588 = metadata !{i32 786478, i32 0, metadata !295, metadata !"insert", metadata !"insert", metadata !"_ZNSs6insertEyRKSs", metadata !299, i32 1176, metadata !589, i1 false, i1 false, i32 0, i32 0, null, i32 256, i1 false, null, null, i32 0, metadata !99, i32 1176} ; [ DW_TAG_subprogram ]
!589 = metadata !{i32 786453, i32 0, metadata !"", i32 0, i32 0, i64 0, i64 0, i64 0, i32 0, null, metadata !590, i32 0, i32 0} ; [ DW_TAG_subroutine_type ]
!590 = metadata !{metadata !507, metadata !379, metadata !390, metadata !487}
!591 = metadata !{i32 786478, i32 0, metadata !295, metadata !"insert", metadata !"insert", metadata !"_ZNSs6insertEyRKSsyy", metadata !299, i32 1198, metadata !592, i1 false, i1 false, i32 0, i32 0, null, i32 256, i1 false, null, null, i32 0, metadata !99, i32 1198} ; [ DW_TAG_subprogram ]
!592 = metadata !{i32 786453, i32 0, metadata !"", i32 0, i32 0, i64 0, i64 0, i64 0, i32 0, null, metadata !593, i32 0, i32 0} ; [ DW_TAG_subroutine_type ]
!593 = metadata !{metadata !507, metadata !379, metadata !390, metadata !487, metadata !390, metadata !390}
!594 = metadata !{i32 786478, i32 0, metadata !295, metadata !"insert", metadata !"insert", metadata !"_ZNSs6insertEyPKcy", metadata !299, i32 1221, metadata !595, i1 false, i1 false, i32 0, i32 0, null, i32 256, i1 false, null, null, i32 0, metadata !99, i32 1221} ; [ DW_TAG_subprogram ]
!595 = metadata !{i32 786453, i32 0, metadata !"", i32 0, i32 0, i64 0, i64 0, i64 0, i32 0, null, metadata !596, i32 0, i32 0} ; [ DW_TAG_subroutine_type ]
!596 = metadata !{metadata !507, metadata !379, metadata !390, metadata !163, metadata !390}
!597 = metadata !{i32 786478, i32 0, metadata !295, metadata !"insert", metadata !"insert", metadata !"_ZNSs6insertEyPKc", metadata !299, i32 1239, metadata !598, i1 false, i1 false, i32 0, i32 0, null, i32 256, i1 false, null, null, i32 0, metadata !99, i32 1239} ; [ DW_TAG_subprogram ]
!598 = metadata !{i32 786453, i32 0, metadata !"", i32 0, i32 0, i64 0, i64 0, i64 0, i32 0, null, metadata !599, i32 0, i32 0} ; [ DW_TAG_subroutine_type ]
!599 = metadata !{metadata !507, metadata !379, metadata !390, metadata !163}
!600 = metadata !{i32 786478, i32 0, metadata !295, metadata !"insert", metadata !"insert", metadata !"_ZNSs6insertEyyc", metadata !299, i32 1262, metadata !601, i1 false, i1 false, i32 0, i32 0, null, i32 256, i1 false, null, null, i32 0, metadata !99, i32 1262} ; [ DW_TAG_subprogram ]
!601 = metadata !{i32 786453, i32 0, metadata !"", i32 0, i32 0, i64 0, i64 0, i64 0, i32 0, null, metadata !602, i32 0, i32 0} ; [ DW_TAG_subroutine_type ]
!602 = metadata !{metadata !507, metadata !379, metadata !390, metadata !390, metadata !165}
!603 = metadata !{i32 786478, i32 0, metadata !295, metadata !"insert", metadata !"insert", metadata !"_ZNSs6insertEN9__gnu_cxx17__normal_iteratorIPcSsEEc", metadata !299, i32 1279, metadata !604, i1 false, i1 false, i32 0, i32 0, null, i32 256, i1 false, null, null, i32 0, metadata !99, i32 1279} ; [ DW_TAG_subprogram ]
!604 = metadata !{i32 786453, i32 0, metadata !"", i32 0, i32 0, i64 0, i64 0, i64 0, i32 0, null, metadata !605, i32 0, i32 0} ; [ DW_TAG_subroutine_type ]
!605 = metadata !{metadata !432, metadata !379, metadata !432, metadata !165}
!606 = metadata !{i32 786478, i32 0, metadata !295, metadata !"erase", metadata !"erase", metadata !"_ZNSs5eraseEyy", metadata !299, i32 1303, metadata !607, i1 false, i1 false, i32 0, i32 0, null, i32 256, i1 false, null, null, i32 0, metadata !99, i32 1303} ; [ DW_TAG_subprogram ]
!607 = metadata !{i32 786453, i32 0, metadata !"", i32 0, i32 0, i64 0, i64 0, i64 0, i32 0, null, metadata !608, i32 0, i32 0} ; [ DW_TAG_subroutine_type ]
!608 = metadata !{metadata !507, metadata !379, metadata !390, metadata !390}
!609 = metadata !{i32 786478, i32 0, metadata !295, metadata !"erase", metadata !"erase", metadata !"_ZNSs5eraseEN9__gnu_cxx17__normal_iteratorIPcSsEE", metadata !299, i32 1319, metadata !610, i1 false, i1 false, i32 0, i32 0, null, i32 256, i1 false, null, null, i32 0, metadata !99, i32 1319} ; [ DW_TAG_subprogram ]
!610 = metadata !{i32 786453, i32 0, metadata !"", i32 0, i32 0, i64 0, i64 0, i64 0, i32 0, null, metadata !611, i32 0, i32 0} ; [ DW_TAG_subroutine_type ]
!611 = metadata !{metadata !432, metadata !379, metadata !432}
!612 = metadata !{i32 786478, i32 0, metadata !295, metadata !"erase", metadata !"erase", metadata !"_ZNSs5eraseEN9__gnu_cxx17__normal_iteratorIPcSsEES2_", metadata !299, i32 1339, metadata !613, i1 false, i1 false, i32 0, i32 0, null, i32 256, i1 false, null, null, i32 0, metadata !99, i32 1339} ; [ DW_TAG_subprogram ]
!613 = metadata !{i32 786453, i32 0, metadata !"", i32 0, i32 0, i64 0, i64 0, i64 0, i32 0, null, metadata !614, i32 0, i32 0} ; [ DW_TAG_subroutine_type ]
!614 = metadata !{metadata !432, metadata !379, metadata !432, metadata !432}
!615 = metadata !{i32 786478, i32 0, metadata !295, metadata !"replace", metadata !"replace", metadata !"_ZNSs7replaceEyyRKSs", metadata !299, i32 1358, metadata !616, i1 false, i1 false, i32 0, i32 0, null, i32 256, i1 false, null, null, i32 0, metadata !99, i32 1358} ; [ DW_TAG_subprogram ]
!616 = metadata !{i32 786453, i32 0, metadata !"", i32 0, i32 0, i64 0, i64 0, i64 0, i32 0, null, metadata !617, i32 0, i32 0} ; [ DW_TAG_subroutine_type ]
!617 = metadata !{metadata !507, metadata !379, metadata !390, metadata !390, metadata !487}
!618 = metadata !{i32 786478, i32 0, metadata !295, metadata !"replace", metadata !"replace", metadata !"_ZNSs7replaceEyyRKSsyy", metadata !299, i32 1380, metadata !619, i1 false, i1 false, i32 0, i32 0, null, i32 256, i1 false, null, null, i32 0, metadata !99, i32 1380} ; [ DW_TAG_subprogram ]
!619 = metadata !{i32 786453, i32 0, metadata !"", i32 0, i32 0, i64 0, i64 0, i64 0, i32 0, null, metadata !620, i32 0, i32 0} ; [ DW_TAG_subroutine_type ]
!620 = metadata !{metadata !507, metadata !379, metadata !390, metadata !390, metadata !487, metadata !390, metadata !390}
!621 = metadata !{i32 786478, i32 0, metadata !295, metadata !"replace", metadata !"replace", metadata !"_ZNSs7replaceEyyPKcy", metadata !299, i32 1404, metadata !622, i1 false, i1 false, i32 0, i32 0, null, i32 256, i1 false, null, null, i32 0, metadata !99, i32 1404} ; [ DW_TAG_subprogram ]
!622 = metadata !{i32 786453, i32 0, metadata !"", i32 0, i32 0, i64 0, i64 0, i64 0, i32 0, null, metadata !623, i32 0, i32 0} ; [ DW_TAG_subroutine_type ]
!623 = metadata !{metadata !507, metadata !379, metadata !390, metadata !390, metadata !163, metadata !390}
!624 = metadata !{i32 786478, i32 0, metadata !295, metadata !"replace", metadata !"replace", metadata !"_ZNSs7replaceEyyPKc", metadata !299, i32 1423, metadata !625, i1 false, i1 false, i32 0, i32 0, null, i32 256, i1 false, null, null, i32 0, metadata !99, i32 1423} ; [ DW_TAG_subprogram ]
!625 = metadata !{i32 786453, i32 0, metadata !"", i32 0, i32 0, i64 0, i64 0, i64 0, i32 0, null, metadata !626, i32 0, i32 0} ; [ DW_TAG_subroutine_type ]
!626 = metadata !{metadata !507, metadata !379, metadata !390, metadata !390, metadata !163}
!627 = metadata !{i32 786478, i32 0, metadata !295, metadata !"replace", metadata !"replace", metadata !"_ZNSs7replaceEyyyc", metadata !299, i32 1446, metadata !628, i1 false, i1 false, i32 0, i32 0, null, i32 256, i1 false, null, null, i32 0, metadata !99, i32 1446} ; [ DW_TAG_subprogram ]
!628 = metadata !{i32 786453, i32 0, metadata !"", i32 0, i32 0, i64 0, i64 0, i64 0, i32 0, null, metadata !629, i32 0, i32 0} ; [ DW_TAG_subroutine_type ]
!629 = metadata !{metadata !507, metadata !379, metadata !390, metadata !390, metadata !390, metadata !165}
!630 = metadata !{i32 786478, i32 0, metadata !295, metadata !"replace", metadata !"replace", metadata !"_ZNSs7replaceEN9__gnu_cxx17__normal_iteratorIPcSsEES2_RKSs", metadata !299, i32 1464, metadata !631, i1 false, i1 false, i32 0, i32 0, null, i32 256, i1 false, null, null, i32 0, metadata !99, i32 1464} ; [ DW_TAG_subprogram ]
!631 = metadata !{i32 786453, i32 0, metadata !"", i32 0, i32 0, i64 0, i64 0, i64 0, i32 0, null, metadata !632, i32 0, i32 0} ; [ DW_TAG_subroutine_type ]
!632 = metadata !{metadata !507, metadata !379, metadata !432, metadata !432, metadata !487}
!633 = metadata !{i32 786478, i32 0, metadata !295, metadata !"replace", metadata !"replace", metadata !"_ZNSs7replaceEN9__gnu_cxx17__normal_iteratorIPcSsEES2_PKcy", metadata !299, i32 1482, metadata !634, i1 false, i1 false, i32 0, i32 0, null, i32 256, i1 false, null, null, i32 0, metadata !99, i32 1482} ; [ DW_TAG_subprogram ]
!634 = metadata !{i32 786453, i32 0, metadata !"", i32 0, i32 0, i64 0, i64 0, i64 0, i32 0, null, metadata !635, i32 0, i32 0} ; [ DW_TAG_subroutine_type ]
!635 = metadata !{metadata !507, metadata !379, metadata !432, metadata !432, metadata !163, metadata !390}
!636 = metadata !{i32 786478, i32 0, metadata !295, metadata !"replace", metadata !"replace", metadata !"_ZNSs7replaceEN9__gnu_cxx17__normal_iteratorIPcSsEES2_PKc", metadata !299, i32 1503, metadata !637, i1 false, i1 false, i32 0, i32 0, null, i32 256, i1 false, null, null, i32 0, metadata !99, i32 1503} ; [ DW_TAG_subprogram ]
!637 = metadata !{i32 786453, i32 0, metadata !"", i32 0, i32 0, i64 0, i64 0, i64 0, i32 0, null, metadata !638, i32 0, i32 0} ; [ DW_TAG_subroutine_type ]
!638 = metadata !{metadata !507, metadata !379, metadata !432, metadata !432, metadata !163}
!639 = metadata !{i32 786478, i32 0, metadata !295, metadata !"replace", metadata !"replace", metadata !"_ZNSs7replaceEN9__gnu_cxx17__normal_iteratorIPcSsEES2_yc", metadata !299, i32 1524, metadata !640, i1 false, i1 false, i32 0, i32 0, null, i32 256, i1 false, null, null, i32 0, metadata !99, i32 1524} ; [ DW_TAG_subprogram ]
!640 = metadata !{i32 786453, i32 0, metadata !"", i32 0, i32 0, i64 0, i64 0, i64 0, i32 0, null, metadata !641, i32 0, i32 0} ; [ DW_TAG_subroutine_type ]
!641 = metadata !{metadata !507, metadata !379, metadata !432, metadata !432, metadata !390, metadata !165}
!642 = metadata !{i32 786478, i32 0, metadata !295, metadata !"replace", metadata !"replace", metadata !"_ZNSs7replaceEN9__gnu_cxx17__normal_iteratorIPcSsEES2_S1_S1_", metadata !299, i32 1560, metadata !643, i1 false, i1 false, i32 0, i32 0, null, i32 256, i1 false, null, null, i32 0, metadata !99, i32 1560} ; [ DW_TAG_subprogram ]
!643 = metadata !{i32 786453, i32 0, metadata !"", i32 0, i32 0, i64 0, i64 0, i64 0, i32 0, null, metadata !644, i32 0, i32 0} ; [ DW_TAG_subroutine_type ]
!644 = metadata !{metadata !507, metadata !379, metadata !432, metadata !432, metadata !200, metadata !200}
!645 = metadata !{i32 786478, i32 0, metadata !295, metadata !"replace", metadata !"replace", metadata !"_ZNSs7replaceEN9__gnu_cxx17__normal_iteratorIPcSsEES2_PKcS4_", metadata !299, i32 1570, metadata !646, i1 false, i1 false, i32 0, i32 0, null, i32 256, i1 false, null, null, i32 0, metadata !99, i32 1570} ; [ DW_TAG_subprogram ]
!646 = metadata !{i32 786453, i32 0, metadata !"", i32 0, i32 0, i64 0, i64 0, i64 0, i32 0, null, metadata !647, i32 0, i32 0} ; [ DW_TAG_subroutine_type ]
!647 = metadata !{metadata !507, metadata !379, metadata !432, metadata !432, metadata !163, metadata !163}
!648 = metadata !{i32 786478, i32 0, metadata !295, metadata !"replace", metadata !"replace", metadata !"_ZNSs7replaceEN9__gnu_cxx17__normal_iteratorIPcSsEES2_S2_S2_", metadata !299, i32 1581, metadata !649, i1 false, i1 false, i32 0, i32 0, null, i32 256, i1 false, null, null, i32 0, metadata !99, i32 1581} ; [ DW_TAG_subprogram ]
!649 = metadata !{i32 786453, i32 0, metadata !"", i32 0, i32 0, i64 0, i64 0, i64 0, i32 0, null, metadata !650, i32 0, i32 0} ; [ DW_TAG_subroutine_type ]
!650 = metadata !{metadata !507, metadata !379, metadata !432, metadata !432, metadata !432, metadata !432}
!651 = metadata !{i32 786478, i32 0, metadata !295, metadata !"replace", metadata !"replace", metadata !"_ZNSs7replaceEN9__gnu_cxx17__normal_iteratorIPcSsEES2_NS0_IPKcSsEES5_", metadata !299, i32 1591, metadata !652, i1 false, i1 false, i32 0, i32 0, null, i32 256, i1 false, null, null, i32 0, metadata !99, i32 1591} ; [ DW_TAG_subprogram ]
!652 = metadata !{i32 786453, i32 0, metadata !"", i32 0, i32 0, i64 0, i64 0, i64 0, i32 0, null, metadata !653, i32 0, i32 0} ; [ DW_TAG_subroutine_type ]
!653 = metadata !{metadata !507, metadata !379, metadata !432, metadata !432, metadata !464, metadata !464}
!654 = metadata !{i32 786478, i32 0, metadata !295, metadata !"_M_replace_aux", metadata !"_M_replace_aux", metadata !"_ZNSs14_M_replace_auxEyyyc", metadata !299, i32 1633, metadata !628, i1 false, i1 false, i32 0, i32 0, null, i32 257, i1 false, null, null, i32 0, metadata !99, i32 1633} ; [ DW_TAG_subprogram ]
!655 = metadata !{i32 786478, i32 0, metadata !295, metadata !"_M_replace_safe", metadata !"_M_replace_safe", metadata !"_ZNSs15_M_replace_safeEyyPKcy", metadata !299, i32 1637, metadata !622, i1 false, i1 false, i32 0, i32 0, null, i32 257, i1 false, null, null, i32 0, metadata !99, i32 1637} ; [ DW_TAG_subprogram ]
!656 = metadata !{i32 786478, i32 0, metadata !295, metadata !"_S_construct_aux_2", metadata !"_S_construct_aux_2", metadata !"_ZNSs18_S_construct_aux_2EycRKSaIcE", metadata !299, i32 1661, metadata !657, i1 false, i1 false, i32 0, i32 0, null, i32 257, i1 false, null, null, i32 0, metadata !99, i32 1661} ; [ DW_TAG_subprogram ]
!657 = metadata !{i32 786453, i32 0, metadata !"", i32 0, i32 0, i64 0, i64 0, i64 0, i32 0, null, metadata !658, i32 0, i32 0} ; [ DW_TAG_subroutine_type ]
!658 = metadata !{metadata !200, metadata !390, metadata !165, metadata !361}
!659 = metadata !{i32 786478, i32 0, metadata !295, metadata !"_S_construct", metadata !"_S_construct", metadata !"_ZNSs12_S_constructEycRKSaIcE", metadata !299, i32 1686, metadata !657, i1 false, i1 false, i32 0, i32 0, null, i32 257, i1 false, null, null, i32 0, metadata !99, i32 1686} ; [ DW_TAG_subprogram ]
!660 = metadata !{i32 786478, i32 0, metadata !295, metadata !"copy", metadata !"copy", metadata !"_ZNKSs4copyEPcyy", metadata !299, i32 1702, metadata !661, i1 false, i1 false, i32 0, i32 0, null, i32 256, i1 false, null, null, i32 0, metadata !99, i32 1702} ; [ DW_TAG_subprogram ]
!661 = metadata !{i32 786453, i32 0, metadata !"", i32 0, i32 0, i64 0, i64 0, i64 0, i32 0, null, metadata !662, i32 0, i32 0} ; [ DW_TAG_subroutine_type ]
!662 = metadata !{metadata !390, metadata !374, metadata !200, metadata !390, metadata !390}
!663 = metadata !{i32 786478, i32 0, metadata !295, metadata !"swap", metadata !"swap", metadata !"_ZNSs4swapERSs", metadata !299, i32 1712, metadata !664, i1 false, i1 false, i32 0, i32 0, null, i32 256, i1 false, null, null, i32 0, metadata !99, i32 1712} ; [ DW_TAG_subprogram ]
!664 = metadata !{i32 786453, i32 0, metadata !"", i32 0, i32 0, i64 0, i64 0, i64 0, i32 0, null, metadata !665, i32 0, i32 0} ; [ DW_TAG_subroutine_type ]
!665 = metadata !{null, metadata !379, metadata !507}
!666 = metadata !{i32 786478, i32 0, metadata !295, metadata !"c_str", metadata !"c_str", metadata !"_ZNKSs5c_strEv", metadata !299, i32 1722, metadata !667, i1 false, i1 false, i32 0, i32 0, null, i32 256, i1 false, null, null, i32 0, metadata !99, i32 1722} ; [ DW_TAG_subprogram ]
!667 = metadata !{i32 786453, i32 0, metadata !"", i32 0, i32 0, i64 0, i64 0, i64 0, i32 0, null, metadata !668, i32 0, i32 0} ; [ DW_TAG_subroutine_type ]
!668 = metadata !{metadata !163, metadata !374}
!669 = metadata !{i32 786478, i32 0, metadata !295, metadata !"data", metadata !"data", metadata !"_ZNKSs4dataEv", metadata !299, i32 1732, metadata !667, i1 false, i1 false, i32 0, i32 0, null, i32 256, i1 false, null, null, i32 0, metadata !99, i32 1732} ; [ DW_TAG_subprogram ]
!670 = metadata !{i32 786478, i32 0, metadata !295, metadata !"get_allocator", metadata !"get_allocator", metadata !"_ZNKSs13get_allocatorEv", metadata !299, i32 1739, metadata !671, i1 false, i1 false, i32 0, i32 0, null, i32 256, i1 false, null, null, i32 0, metadata !99, i32 1739} ; [ DW_TAG_subprogram ]
!671 = metadata !{i32 786453, i32 0, metadata !"", i32 0, i32 0, i64 0, i64 0, i64 0, i32 0, null, metadata !672, i32 0, i32 0} ; [ DW_TAG_subroutine_type ]
!672 = metadata !{metadata !673, metadata !374}
!673 = metadata !{i32 786454, metadata !295, metadata !"allocator_type", metadata !296, i32 112, i64 0, i64 0, i64 0, i32 0, metadata !303} ; [ DW_TAG_typedef ]
!674 = metadata !{i32 786478, i32 0, metadata !295, metadata !"find", metadata !"find", metadata !"_ZNKSs4findEPKcyy", metadata !299, i32 1754, metadata !675, i1 false, i1 false, i32 0, i32 0, null, i32 256, i1 false, null, null, i32 0, metadata !99, i32 1754} ; [ DW_TAG_subprogram ]
!675 = metadata !{i32 786453, i32 0, metadata !"", i32 0, i32 0, i64 0, i64 0, i64 0, i32 0, null, metadata !676, i32 0, i32 0} ; [ DW_TAG_subroutine_type ]
!676 = metadata !{metadata !390, metadata !374, metadata !163, metadata !390, metadata !390}
!677 = metadata !{i32 786478, i32 0, metadata !295, metadata !"find", metadata !"find", metadata !"_ZNKSs4findERKSsy", metadata !299, i32 1767, metadata !678, i1 false, i1 false, i32 0, i32 0, null, i32 256, i1 false, null, null, i32 0, metadata !99, i32 1767} ; [ DW_TAG_subprogram ]
!678 = metadata !{i32 786453, i32 0, metadata !"", i32 0, i32 0, i64 0, i64 0, i64 0, i32 0, null, metadata !679, i32 0, i32 0} ; [ DW_TAG_subroutine_type ]
!679 = metadata !{metadata !390, metadata !374, metadata !487, metadata !390}
!680 = metadata !{i32 786478, i32 0, metadata !295, metadata !"find", metadata !"find", metadata !"_ZNKSs4findEPKcy", metadata !299, i32 1781, metadata !681, i1 false, i1 false, i32 0, i32 0, null, i32 256, i1 false, null, null, i32 0, metadata !99, i32 1781} ; [ DW_TAG_subprogram ]
!681 = metadata !{i32 786453, i32 0, metadata !"", i32 0, i32 0, i64 0, i64 0, i64 0, i32 0, null, metadata !682, i32 0, i32 0} ; [ DW_TAG_subroutine_type ]
!682 = metadata !{metadata !390, metadata !374, metadata !163, metadata !390}
!683 = metadata !{i32 786478, i32 0, metadata !295, metadata !"find", metadata !"find", metadata !"_ZNKSs4findEcy", metadata !299, i32 1798, metadata !684, i1 false, i1 false, i32 0, i32 0, null, i32 256, i1 false, null, null, i32 0, metadata !99, i32 1798} ; [ DW_TAG_subprogram ]
!684 = metadata !{i32 786453, i32 0, metadata !"", i32 0, i32 0, i64 0, i64 0, i64 0, i32 0, null, metadata !685, i32 0, i32 0} ; [ DW_TAG_subroutine_type ]
!685 = metadata !{metadata !390, metadata !374, metadata !165, metadata !390}
!686 = metadata !{i32 786478, i32 0, metadata !295, metadata !"rfind", metadata !"rfind", metadata !"_ZNKSs5rfindERKSsy", metadata !299, i32 1811, metadata !678, i1 false, i1 false, i32 0, i32 0, null, i32 256, i1 false, null, null, i32 0, metadata !99, i32 1811} ; [ DW_TAG_subprogram ]
!687 = metadata !{i32 786478, i32 0, metadata !295, metadata !"rfind", metadata !"rfind", metadata !"_ZNKSs5rfindEPKcyy", metadata !299, i32 1826, metadata !675, i1 false, i1 false, i32 0, i32 0, null, i32 256, i1 false, null, null, i32 0, metadata !99, i32 1826} ; [ DW_TAG_subprogram ]
!688 = metadata !{i32 786478, i32 0, metadata !295, metadata !"rfind", metadata !"rfind", metadata !"_ZNKSs5rfindEPKcy", metadata !299, i32 1839, metadata !681, i1 false, i1 false, i32 0, i32 0, null, i32 256, i1 false, null, null, i32 0, metadata !99, i32 1839} ; [ DW_TAG_subprogram ]
!689 = metadata !{i32 786478, i32 0, metadata !295, metadata !"rfind", metadata !"rfind", metadata !"_ZNKSs5rfindEcy", metadata !299, i32 1856, metadata !684, i1 false, i1 false, i32 0, i32 0, null, i32 256, i1 false, null, null, i32 0, metadata !99, i32 1856} ; [ DW_TAG_subprogram ]
!690 = metadata !{i32 786478, i32 0, metadata !295, metadata !"find_first_of", metadata !"find_first_of", metadata !"_ZNKSs13find_first_ofERKSsy", metadata !299, i32 1869, metadata !678, i1 false, i1 false, i32 0, i32 0, null, i32 256, i1 false, null, null, i32 0, metadata !99, i32 1869} ; [ DW_TAG_subprogram ]
!691 = metadata !{i32 786478, i32 0, metadata !295, metadata !"find_first_of", metadata !"find_first_of", metadata !"_ZNKSs13find_first_ofEPKcyy", metadata !299, i32 1884, metadata !675, i1 false, i1 false, i32 0, i32 0, null, i32 256, i1 false, null, null, i32 0, metadata !99, i32 1884} ; [ DW_TAG_subprogram ]
!692 = metadata !{i32 786478, i32 0, metadata !295, metadata !"find_first_of", metadata !"find_first_of", metadata !"_ZNKSs13find_first_ofEPKcy", metadata !299, i32 1897, metadata !681, i1 false, i1 false, i32 0, i32 0, null, i32 256, i1 false, null, null, i32 0, metadata !99, i32 1897} ; [ DW_TAG_subprogram ]
!693 = metadata !{i32 786478, i32 0, metadata !295, metadata !"find_first_of", metadata !"find_first_of", metadata !"_ZNKSs13find_first_ofEcy", metadata !299, i32 1916, metadata !684, i1 false, i1 false, i32 0, i32 0, null, i32 256, i1 false, null, null, i32 0, metadata !99, i32 1916} ; [ DW_TAG_subprogram ]
!694 = metadata !{i32 786478, i32 0, metadata !295, metadata !"find_last_of", metadata !"find_last_of", metadata !"_ZNKSs12find_last_ofERKSsy", metadata !299, i32 1930, metadata !678, i1 false, i1 false, i32 0, i32 0, null, i32 256, i1 false, null, null, i32 0, metadata !99, i32 1930} ; [ DW_TAG_subprogram ]
!695 = metadata !{i32 786478, i32 0, metadata !295, metadata !"find_last_of", metadata !"find_last_of", metadata !"_ZNKSs12find_last_ofEPKcyy", metadata !299, i32 1945, metadata !675, i1 false, i1 false, i32 0, i32 0, null, i32 256, i1 false, null, null, i32 0, metadata !99, i32 1945} ; [ DW_TAG_subprogram ]
!696 = metadata !{i32 786478, i32 0, metadata !295, metadata !"find_last_of", metadata !"find_last_of", metadata !"_ZNKSs12find_last_ofEPKcy", metadata !299, i32 1958, metadata !681, i1 false, i1 false, i32 0, i32 0, null, i32 256, i1 false, null, null, i32 0, metadata !99, i32 1958} ; [ DW_TAG_subprogram ]
!697 = metadata !{i32 786478, i32 0, metadata !295, metadata !"find_last_of", metadata !"find_last_of", metadata !"_ZNKSs12find_last_ofEcy", metadata !299, i32 1977, metadata !684, i1 false, i1 false, i32 0, i32 0, null, i32 256, i1 false, null, null, i32 0, metadata !99, i32 1977} ; [ DW_TAG_subprogram ]
!698 = metadata !{i32 786478, i32 0, metadata !295, metadata !"find_first_not_of", metadata !"find_first_not_of", metadata !"_ZNKSs17find_first_not_ofERKSsy", metadata !299, i32 1991, metadata !678, i1 false, i1 false, i32 0, i32 0, null, i32 256, i1 false, null, null, i32 0, metadata !99, i32 1991} ; [ DW_TAG_subprogram ]
!699 = metadata !{i32 786478, i32 0, metadata !295, metadata !"find_first_not_of", metadata !"find_first_not_of", metadata !"_ZNKSs17find_first_not_ofEPKcyy", metadata !299, i32 2006, metadata !675, i1 false, i1 false, i32 0, i32 0, null, i32 256, i1 false, null, null, i32 0, metadata !99, i32 2006} ; [ DW_TAG_subprogram ]
!700 = metadata !{i32 786478, i32 0, metadata !295, metadata !"find_first_not_of", metadata !"find_first_not_of", metadata !"_ZNKSs17find_first_not_ofEPKcy", metadata !299, i32 2020, metadata !681, i1 false, i1 false, i32 0, i32 0, null, i32 256, i1 false, null, null, i32 0, metadata !99, i32 2020} ; [ DW_TAG_subprogram ]
!701 = metadata !{i32 786478, i32 0, metadata !295, metadata !"find_first_not_of", metadata !"find_first_not_of", metadata !"_ZNKSs17find_first_not_ofEcy", metadata !299, i32 2037, metadata !684, i1 false, i1 false, i32 0, i32 0, null, i32 256, i1 false, null, null, i32 0, metadata !99, i32 2037} ; [ DW_TAG_subprogram ]
!702 = metadata !{i32 786478, i32 0, metadata !295, metadata !"find_last_not_of", metadata !"find_last_not_of", metadata !"_ZNKSs16find_last_not_ofERKSsy", metadata !299, i32 2050, metadata !678, i1 false, i1 false, i32 0, i32 0, null, i32 256, i1 false, null, null, i32 0, metadata !99, i32 2050} ; [ DW_TAG_subprogram ]
!703 = metadata !{i32 786478, i32 0, metadata !295, metadata !"find_last_not_of", metadata !"find_last_not_of", metadata !"_ZNKSs16find_last_not_ofEPKcyy", metadata !299, i32 2066, metadata !675, i1 false, i1 false, i32 0, i32 0, null, i32 256, i1 false, null, null, i32 0, metadata !99, i32 2066} ; [ DW_TAG_subprogram ]
!704 = metadata !{i32 786478, i32 0, metadata !295, metadata !"find_last_not_of", metadata !"find_last_not_of", metadata !"_ZNKSs16find_last_not_ofEPKcy", metadata !299, i32 2079, metadata !681, i1 false, i1 false, i32 0, i32 0, null, i32 256, i1 false, null, null, i32 0, metadata !99, i32 2079} ; [ DW_TAG_subprogram ]
!705 = metadata !{i32 786478, i32 0, metadata !295, metadata !"find_last_not_of", metadata !"find_last_not_of", metadata !"_ZNKSs16find_last_not_ofEcy", metadata !299, i32 2096, metadata !684, i1 false, i1 false, i32 0, i32 0, null, i32 256, i1 false, null, null, i32 0, metadata !99, i32 2096} ; [ DW_TAG_subprogram ]
!706 = metadata !{i32 786478, i32 0, metadata !295, metadata !"substr", metadata !"substr", metadata !"_ZNKSs6substrEyy", metadata !299, i32 2111, metadata !707, i1 false, i1 false, i32 0, i32 0, null, i32 256, i1 false, null, null, i32 0, metadata !99, i32 2111} ; [ DW_TAG_subprogram ]
!707 = metadata !{i32 786453, i32 0, metadata !"", i32 0, i32 0, i64 0, i64 0, i64 0, i32 0, null, metadata !708, i32 0, i32 0} ; [ DW_TAG_subroutine_type ]
!708 = metadata !{metadata !295, metadata !374, metadata !390, metadata !390}
!709 = metadata !{i32 786478, i32 0, metadata !295, metadata !"compare", metadata !"compare", metadata !"_ZNKSs7compareERKSs", metadata !299, i32 2129, metadata !710, i1 false, i1 false, i32 0, i32 0, null, i32 256, i1 false, null, null, i32 0, metadata !99, i32 2129} ; [ DW_TAG_subprogram ]
!710 = metadata !{i32 786453, i32 0, metadata !"", i32 0, i32 0, i64 0, i64 0, i64 0, i32 0, null, metadata !711, i32 0, i32 0} ; [ DW_TAG_subroutine_type ]
!711 = metadata !{metadata !35, metadata !374, metadata !487}
!712 = metadata !{i32 786478, i32 0, metadata !295, metadata !"compare", metadata !"compare", metadata !"_ZNKSs7compareEyyRKSs", metadata !299, i32 2159, metadata !713, i1 false, i1 false, i32 0, i32 0, null, i32 256, i1 false, null, null, i32 0, metadata !99, i32 2159} ; [ DW_TAG_subprogram ]
!713 = metadata !{i32 786453, i32 0, metadata !"", i32 0, i32 0, i64 0, i64 0, i64 0, i32 0, null, metadata !714, i32 0, i32 0} ; [ DW_TAG_subroutine_type ]
!714 = metadata !{metadata !35, metadata !374, metadata !390, metadata !390, metadata !487}
!715 = metadata !{i32 786478, i32 0, metadata !295, metadata !"compare", metadata !"compare", metadata !"_ZNKSs7compareEyyRKSsyy", metadata !299, i32 2183, metadata !716, i1 false, i1 false, i32 0, i32 0, null, i32 256, i1 false, null, null, i32 0, metadata !99, i32 2183} ; [ DW_TAG_subprogram ]
!716 = metadata !{i32 786453, i32 0, metadata !"", i32 0, i32 0, i64 0, i64 0, i64 0, i32 0, null, metadata !717, i32 0, i32 0} ; [ DW_TAG_subroutine_type ]
!717 = metadata !{metadata !35, metadata !374, metadata !390, metadata !390, metadata !487, metadata !390, metadata !390}
!718 = metadata !{i32 786478, i32 0, metadata !295, metadata !"compare", metadata !"compare", metadata !"_ZNKSs7compareEPKc", metadata !299, i32 2201, metadata !719, i1 false, i1 false, i32 0, i32 0, null, i32 256, i1 false, null, null, i32 0, metadata !99, i32 2201} ; [ DW_TAG_subprogram ]
!719 = metadata !{i32 786453, i32 0, metadata !"", i32 0, i32 0, i64 0, i64 0, i64 0, i32 0, null, metadata !720, i32 0, i32 0} ; [ DW_TAG_subroutine_type ]
!720 = metadata !{metadata !35, metadata !374, metadata !163}
!721 = metadata !{i32 786478, i32 0, metadata !295, metadata !"compare", metadata !"compare", metadata !"_ZNKSs7compareEyyPKc", metadata !299, i32 2224, metadata !722, i1 false, i1 false, i32 0, i32 0, null, i32 256, i1 false, null, null, i32 0, metadata !99, i32 2224} ; [ DW_TAG_subprogram ]
!722 = metadata !{i32 786453, i32 0, metadata !"", i32 0, i32 0, i64 0, i64 0, i64 0, i32 0, null, metadata !723, i32 0, i32 0} ; [ DW_TAG_subroutine_type ]
!723 = metadata !{metadata !35, metadata !374, metadata !390, metadata !390, metadata !163}
!724 = metadata !{i32 786478, i32 0, metadata !295, metadata !"compare", metadata !"compare", metadata !"_ZNKSs7compareEyyPKcy", metadata !299, i32 2249, metadata !725, i1 false, i1 false, i32 0, i32 0, null, i32 256, i1 false, null, null, i32 0, metadata !99, i32 2249} ; [ DW_TAG_subprogram ]
!725 = metadata !{i32 786453, i32 0, metadata !"", i32 0, i32 0, i64 0, i64 0, i64 0, i32 0, null, metadata !726, i32 0, i32 0} ; [ DW_TAG_subroutine_type ]
!726 = metadata !{metadata !35, metadata !374, metadata !390, metadata !390, metadata !163, metadata !390}
!727 = metadata !{metadata !728, metadata !729, metadata !782}
!728 = metadata !{i32 786479, null, metadata !"_CharT", metadata !165, null, i32 0, i32 0} ; [ DW_TAG_template_type_parameter ]
!729 = metadata !{i32 786479, null, metadata !"_Traits", metadata !730, null, i32 0, i32 0} ; [ DW_TAG_template_type_parameter ]
!730 = metadata !{i32 786434, metadata !731, metadata !"char_traits<char>", metadata !732, i32 236, i64 8, i64 8, i32 0, i32 0, null, metadata !733, i32 0, null, metadata !781} ; [ DW_TAG_class_type ]
!731 = metadata !{i32 786489, null, metadata !"std", metadata !732, i32 214} ; [ DW_TAG_namespace ]
!732 = metadata !{i32 786473, metadata !"D:/Xilinx/Vivado_HLS/2016.2/win64/tools/clang/bin\5C..\5Clib\5Cclang\5C3.1/../../../include/c++/4.5.2\5Cbits/char_traits.h", metadata !"C:\5CUsers\5CMatthew\5CDesktop\5Cembs_open2", null} ; [ DW_TAG_file_type ]
!733 = metadata !{metadata !734, metadata !741, metadata !744, metadata !745, metadata !749, metadata !752, metadata !755, metadata !759, metadata !760, metadata !763, metadata !769, metadata !772, metadata !775, metadata !778}
!734 = metadata !{i32 786478, i32 0, metadata !730, metadata !"assign", metadata !"assign", metadata !"_ZNSt11char_traitsIcE6assignERcRKc", metadata !732, i32 245, metadata !735, i1 false, i1 false, i32 0, i32 0, null, i32 256, i1 false, null, null, i32 0, metadata !99, i32 245} ; [ DW_TAG_subprogram ]
!735 = metadata !{i32 786453, i32 0, metadata !"", i32 0, i32 0, i64 0, i64 0, i64 0, i32 0, null, metadata !736, i32 0, i32 0} ; [ DW_TAG_subroutine_type ]
!736 = metadata !{null, metadata !737, metadata !739}
!737 = metadata !{i32 786448, null, null, null, i32 0, i64 0, i64 0, i64 0, i32 0, metadata !738} ; [ DW_TAG_reference_type ]
!738 = metadata !{i32 786454, metadata !730, metadata !"char_type", metadata !732, i32 238, i64 0, i64 0, i64 0, i32 0, metadata !165} ; [ DW_TAG_typedef ]
!739 = metadata !{i32 786448, null, null, null, i32 0, i64 0, i64 0, i64 0, i32 0, metadata !740} ; [ DW_TAG_reference_type ]
!740 = metadata !{i32 786470, null, metadata !"", null, i32 0, i64 0, i64 0, i64 0, i32 0, metadata !738} ; [ DW_TAG_const_type ]
!741 = metadata !{i32 786478, i32 0, metadata !730, metadata !"eq", metadata !"eq", metadata !"_ZNSt11char_traitsIcE2eqERKcS2_", metadata !732, i32 249, metadata !742, i1 false, i1 false, i32 0, i32 0, null, i32 256, i1 false, null, null, i32 0, metadata !99, i32 249} ; [ DW_TAG_subprogram ]
!742 = metadata !{i32 786453, i32 0, metadata !"", i32 0, i32 0, i64 0, i64 0, i64 0, i32 0, null, metadata !743, i32 0, i32 0} ; [ DW_TAG_subroutine_type ]
!743 = metadata !{metadata !225, metadata !739, metadata !739}
!744 = metadata !{i32 786478, i32 0, metadata !730, metadata !"lt", metadata !"lt", metadata !"_ZNSt11char_traitsIcE2ltERKcS2_", metadata !732, i32 253, metadata !742, i1 false, i1 false, i32 0, i32 0, null, i32 256, i1 false, null, null, i32 0, metadata !99, i32 253} ; [ DW_TAG_subprogram ]
!745 = metadata !{i32 786478, i32 0, metadata !730, metadata !"compare", metadata !"compare", metadata !"_ZNSt11char_traitsIcE7compareEPKcS2_y", metadata !732, i32 257, metadata !746, i1 false, i1 false, i32 0, i32 0, null, i32 256, i1 false, null, null, i32 0, metadata !99, i32 257} ; [ DW_TAG_subprogram ]
!746 = metadata !{i32 786453, i32 0, metadata !"", i32 0, i32 0, i64 0, i64 0, i64 0, i32 0, null, metadata !747, i32 0, i32 0} ; [ DW_TAG_subroutine_type ]
!747 = metadata !{metadata !35, metadata !748, metadata !748, metadata !150}
!748 = metadata !{i32 786447, null, metadata !"", null, i32 0, i64 64, i64 64, i64 0, i32 0, metadata !740} ; [ DW_TAG_pointer_type ]
!749 = metadata !{i32 786478, i32 0, metadata !730, metadata !"length", metadata !"length", metadata !"_ZNSt11char_traitsIcE6lengthEPKc", metadata !732, i32 261, metadata !750, i1 false, i1 false, i32 0, i32 0, null, i32 256, i1 false, null, null, i32 0, metadata !99, i32 261} ; [ DW_TAG_subprogram ]
!750 = metadata !{i32 786453, i32 0, metadata !"", i32 0, i32 0, i64 0, i64 0, i64 0, i32 0, null, metadata !751, i32 0, i32 0} ; [ DW_TAG_subroutine_type ]
!751 = metadata !{metadata !150, metadata !748}
!752 = metadata !{i32 786478, i32 0, metadata !730, metadata !"find", metadata !"find", metadata !"_ZNSt11char_traitsIcE4findEPKcyRS1_", metadata !732, i32 265, metadata !753, i1 false, i1 false, i32 0, i32 0, null, i32 256, i1 false, null, null, i32 0, metadata !99, i32 265} ; [ DW_TAG_subprogram ]
!753 = metadata !{i32 786453, i32 0, metadata !"", i32 0, i32 0, i64 0, i64 0, i64 0, i32 0, null, metadata !754, i32 0, i32 0} ; [ DW_TAG_subroutine_type ]
!754 = metadata !{metadata !748, metadata !748, metadata !150, metadata !739}
!755 = metadata !{i32 786478, i32 0, metadata !730, metadata !"move", metadata !"move", metadata !"_ZNSt11char_traitsIcE4moveEPcPKcy", metadata !732, i32 269, metadata !756, i1 false, i1 false, i32 0, i32 0, null, i32 256, i1 false, null, null, i32 0, metadata !99, i32 269} ; [ DW_TAG_subprogram ]
!756 = metadata !{i32 786453, i32 0, metadata !"", i32 0, i32 0, i64 0, i64 0, i64 0, i32 0, null, metadata !757, i32 0, i32 0} ; [ DW_TAG_subroutine_type ]
!757 = metadata !{metadata !758, metadata !758, metadata !748, metadata !150}
!758 = metadata !{i32 786447, null, metadata !"", null, i32 0, i64 64, i64 64, i64 0, i32 0, metadata !738} ; [ DW_TAG_pointer_type ]
!759 = metadata !{i32 786478, i32 0, metadata !730, metadata !"copy", metadata !"copy", metadata !"_ZNSt11char_traitsIcE4copyEPcPKcy", metadata !732, i32 273, metadata !756, i1 false, i1 false, i32 0, i32 0, null, i32 256, i1 false, null, null, i32 0, metadata !99, i32 273} ; [ DW_TAG_subprogram ]
!760 = metadata !{i32 786478, i32 0, metadata !730, metadata !"assign", metadata !"assign", metadata !"_ZNSt11char_traitsIcE6assignEPcyc", metadata !732, i32 277, metadata !761, i1 false, i1 false, i32 0, i32 0, null, i32 256, i1 false, null, null, i32 0, metadata !99, i32 277} ; [ DW_TAG_subprogram ]
!761 = metadata !{i32 786453, i32 0, metadata !"", i32 0, i32 0, i64 0, i64 0, i64 0, i32 0, null, metadata !762, i32 0, i32 0} ; [ DW_TAG_subroutine_type ]
!762 = metadata !{metadata !758, metadata !758, metadata !150, metadata !738}
!763 = metadata !{i32 786478, i32 0, metadata !730, metadata !"to_char_type", metadata !"to_char_type", metadata !"_ZNSt11char_traitsIcE12to_char_typeERKi", metadata !732, i32 281, metadata !764, i1 false, i1 false, i32 0, i32 0, null, i32 256, i1 false, null, null, i32 0, metadata !99, i32 281} ; [ DW_TAG_subprogram ]
!764 = metadata !{i32 786453, i32 0, metadata !"", i32 0, i32 0, i64 0, i64 0, i64 0, i32 0, null, metadata !765, i32 0, i32 0} ; [ DW_TAG_subroutine_type ]
!765 = metadata !{metadata !738, metadata !766}
!766 = metadata !{i32 786448, null, null, null, i32 0, i64 0, i64 0, i64 0, i32 0, metadata !767} ; [ DW_TAG_reference_type ]
!767 = metadata !{i32 786470, null, metadata !"", null, i32 0, i64 0, i64 0, i64 0, i32 0, metadata !768} ; [ DW_TAG_const_type ]
!768 = metadata !{i32 786454, metadata !730, metadata !"int_type", metadata !732, i32 239, i64 0, i64 0, i64 0, i32 0, metadata !35} ; [ DW_TAG_typedef ]
!769 = metadata !{i32 786478, i32 0, metadata !730, metadata !"to_int_type", metadata !"to_int_type", metadata !"_ZNSt11char_traitsIcE11to_int_typeERKc", metadata !732, i32 287, metadata !770, i1 false, i1 false, i32 0, i32 0, null, i32 256, i1 false, null, null, i32 0, metadata !99, i32 287} ; [ DW_TAG_subprogram ]
!770 = metadata !{i32 786453, i32 0, metadata !"", i32 0, i32 0, i64 0, i64 0, i64 0, i32 0, null, metadata !771, i32 0, i32 0} ; [ DW_TAG_subroutine_type ]
!771 = metadata !{metadata !768, metadata !739}
!772 = metadata !{i32 786478, i32 0, metadata !730, metadata !"eq_int_type", metadata !"eq_int_type", metadata !"_ZNSt11char_traitsIcE11eq_int_typeERKiS2_", metadata !732, i32 291, metadata !773, i1 false, i1 false, i32 0, i32 0, null, i32 256, i1 false, null, null, i32 0, metadata !99, i32 291} ; [ DW_TAG_subprogram ]
!773 = metadata !{i32 786453, i32 0, metadata !"", i32 0, i32 0, i64 0, i64 0, i64 0, i32 0, null, metadata !774, i32 0, i32 0} ; [ DW_TAG_subroutine_type ]
!774 = metadata !{metadata !225, metadata !766, metadata !766}
!775 = metadata !{i32 786478, i32 0, metadata !730, metadata !"eof", metadata !"eof", metadata !"_ZNSt11char_traitsIcE3eofEv", metadata !732, i32 295, metadata !776, i1 false, i1 false, i32 0, i32 0, null, i32 256, i1 false, null, null, i32 0, metadata !99, i32 295} ; [ DW_TAG_subprogram ]
!776 = metadata !{i32 786453, i32 0, metadata !"", i32 0, i32 0, i64 0, i64 0, i64 0, i32 0, null, metadata !777, i32 0, i32 0} ; [ DW_TAG_subroutine_type ]
!777 = metadata !{metadata !768}
!778 = metadata !{i32 786478, i32 0, metadata !730, metadata !"not_eof", metadata !"not_eof", metadata !"_ZNSt11char_traitsIcE7not_eofERKi", metadata !732, i32 299, metadata !779, i1 false, i1 false, i32 0, i32 0, null, i32 256, i1 false, null, null, i32 0, metadata !99, i32 299} ; [ DW_TAG_subprogram ]
!779 = metadata !{i32 786453, i32 0, metadata !"", i32 0, i32 0, i64 0, i64 0, i64 0, i32 0, null, metadata !780, i32 0, i32 0} ; [ DW_TAG_subroutine_type ]
!780 = metadata !{metadata !768, metadata !766}
!781 = metadata !{metadata !728}
!782 = metadata !{i32 786479, null, metadata !"_Alloc", metadata !303, null, i32 0, i32 0} ; [ DW_TAG_template_type_parameter ]
!783 = metadata !{i32 786447, i32 0, metadata !"", i32 0, i32 0, i64 64, i64 64, i64 0, i32 64, metadata !275} ; [ DW_TAG_pointer_type ]
!784 = metadata !{i32 786478, i32 0, metadata !126, metadata !"operator==", metadata !"operator==", metadata !"_ZNKSt6localeeqERKS_", metadata !128, i32 224, metadata !785, i1 false, i1 false, i32 0, i32 0, null, i32 256, i1 false, null, null, i32 0, metadata !99, i32 224} ; [ DW_TAG_subprogram ]
!785 = metadata !{i32 786453, i32 0, metadata !"", i32 0, i32 0, i64 0, i64 0, i64 0, i32 0, null, metadata !786, i32 0, i32 0} ; [ DW_TAG_subroutine_type ]
!786 = metadata !{metadata !225, metadata !783, metadata !274}
!787 = metadata !{i32 786478, i32 0, metadata !126, metadata !"operator!=", metadata !"operator!=", metadata !"_ZNKSt6localeneERKS_", metadata !128, i32 233, metadata !785, i1 false, i1 false, i32 0, i32 0, null, i32 256, i1 false, null, null, i32 0, metadata !99, i32 233} ; [ DW_TAG_subprogram ]
!788 = metadata !{i32 786478, i32 0, metadata !126, metadata !"global", metadata !"global", metadata !"_ZNSt6locale6globalERKS_", metadata !128, i32 268, metadata !789, i1 false, i1 false, i32 0, i32 0, null, i32 256, i1 false, null, null, i32 0, metadata !99, i32 268} ; [ DW_TAG_subprogram ]
!789 = metadata !{i32 786453, i32 0, metadata !"", i32 0, i32 0, i64 0, i64 0, i64 0, i32 0, null, metadata !790, i32 0, i32 0} ; [ DW_TAG_subroutine_type ]
!790 = metadata !{metadata !126, metadata !274}
!791 = metadata !{i32 786478, i32 0, metadata !126, metadata !"classic", metadata !"classic", metadata !"_ZNSt6locale7classicEv", metadata !128, i32 274, metadata !792, i1 false, i1 false, i32 0, i32 0, null, i32 256, i1 false, null, null, i32 0, metadata !99, i32 274} ; [ DW_TAG_subprogram ]
!792 = metadata !{i32 786453, i32 0, metadata !"", i32 0, i32 0, i64 0, i64 0, i64 0, i32 0, null, metadata !793, i32 0, i32 0} ; [ DW_TAG_subroutine_type ]
!793 = metadata !{metadata !274}
!794 = metadata !{i32 786478, i32 0, metadata !126, metadata !"locale", metadata !"locale", metadata !"", metadata !128, i32 309, metadata !795, i1 false, i1 false, i32 0, i32 0, null, i32 385, i1 false, null, null, i32 0, metadata !99, i32 309} ; [ DW_TAG_subprogram ]
!795 = metadata !{i32 786453, i32 0, metadata !"", i32 0, i32 0, i64 0, i64 0, i64 0, i32 0, null, metadata !796, i32 0, i32 0} ; [ DW_TAG_subroutine_type ]
!796 = metadata !{null, metadata !270, metadata !131}
!797 = metadata !{i32 786478, i32 0, metadata !126, metadata !"_S_initialize", metadata !"_S_initialize", metadata !"_ZNSt6locale13_S_initializeEv", metadata !128, i32 312, metadata !144, i1 false, i1 false, i32 0, i32 0, null, i32 257, i1 false, null, null, i32 0, metadata !99, i32 312} ; [ DW_TAG_subprogram ]
!798 = metadata !{i32 786478, i32 0, metadata !126, metadata !"_S_initialize_once", metadata !"_S_initialize_once", metadata !"_ZNSt6locale18_S_initialize_onceEv", metadata !128, i32 315, metadata !144, i1 false, i1 false, i32 0, i32 0, null, i32 257, i1 false, null, null, i32 0, metadata !99, i32 315} ; [ DW_TAG_subprogram ]
!799 = metadata !{i32 786478, i32 0, metadata !126, metadata !"_S_normalize_category", metadata !"_S_normalize_category", metadata !"_ZNSt6locale21_S_normalize_categoryEi", metadata !128, i32 318, metadata !800, i1 false, i1 false, i32 0, i32 0, null, i32 257, i1 false, null, null, i32 0, metadata !99, i32 318} ; [ DW_TAG_subprogram ]
!800 = metadata !{i32 786453, i32 0, metadata !"", i32 0, i32 0, i64 0, i64 0, i64 0, i32 0, null, metadata !801, i32 0, i32 0} ; [ DW_TAG_subroutine_type ]
!801 = metadata !{metadata !230, metadata !230}
!802 = metadata !{i32 786478, i32 0, metadata !126, metadata !"_M_coalesce", metadata !"_M_coalesce", metadata !"_ZNSt6locale11_M_coalesceERKS_S1_i", metadata !128, i32 321, metadata !283, i1 false, i1 false, i32 0, i32 0, null, i32 257, i1 false, null, null, i32 0, metadata !99, i32 321} ; [ DW_TAG_subprogram ]
!803 = metadata !{i32 786474, metadata !126, null, metadata !128, i32 0, i64 0, i64 0, i64 0, i32 0, metadata !132} ; [ DW_TAG_friend ]
!804 = metadata !{i32 786474, metadata !126, null, metadata !128, i32 0, i64 0, i64 0, i64 0, i32 0, metadata !139} ; [ DW_TAG_friend ]
!805 = metadata !{i32 786478, i32 0, metadata !26, metadata !"register_callback", metadata !"register_callback", metadata !"_ZNSt8ios_base17register_callbackEPFvNS_5eventERS_iEi", metadata !28, i32 456, metadata !806, i1 false, i1 false, i32 0, i32 0, null, i32 256, i1 false, null, null, i32 0, metadata !99, i32 456} ; [ DW_TAG_subprogram ]
!806 = metadata !{i32 786453, i32 0, metadata !"", i32 0, i32 0, i64 0, i64 0, i64 0, i32 0, null, metadata !807, i32 0, i32 0} ; [ DW_TAG_subroutine_type ]
!807 = metadata !{null, metadata !808, metadata !82, metadata !35}
!808 = metadata !{i32 786447, i32 0, metadata !"", i32 0, i32 0, i64 64, i64 64, i64 0, i32 64, metadata !26} ; [ DW_TAG_pointer_type ]
!809 = metadata !{i32 786478, i32 0, metadata !26, metadata !"_M_call_callbacks", metadata !"_M_call_callbacks", metadata !"_ZNSt8ios_base17_M_call_callbacksENS_5eventE", metadata !28, i32 491, metadata !810, i1 false, i1 false, i32 0, i32 0, null, i32 258, i1 false, null, null, i32 0, metadata !99, i32 491} ; [ DW_TAG_subprogram ]
!810 = metadata !{i32 786453, i32 0, metadata !"", i32 0, i32 0, i64 0, i64 0, i64 0, i32 0, null, metadata !811, i32 0, i32 0} ; [ DW_TAG_subroutine_type ]
!811 = metadata !{null, metadata !808, metadata !86}
!812 = metadata !{i32 786478, i32 0, metadata !26, metadata !"_M_dispose_callbacks", metadata !"_M_dispose_callbacks", metadata !"_ZNSt8ios_base20_M_dispose_callbacksEv", metadata !28, i32 494, metadata !813, i1 false, i1 false, i32 0, i32 0, null, i32 258, i1 false, null, null, i32 0, metadata !99, i32 494} ; [ DW_TAG_subprogram ]
!813 = metadata !{i32 786453, i32 0, metadata !"", i32 0, i32 0, i64 0, i64 0, i64 0, i32 0, null, metadata !814, i32 0, i32 0} ; [ DW_TAG_subroutine_type ]
!814 = metadata !{null, metadata !808}
!815 = metadata !{i32 786478, i32 0, metadata !26, metadata !"_M_grow_words", metadata !"_M_grow_words", metadata !"_ZNSt8ios_base13_M_grow_wordsEib", metadata !28, i32 517, metadata !816, i1 false, i1 false, i32 0, i32 0, null, i32 258, i1 false, null, null, i32 0, metadata !99, i32 517} ; [ DW_TAG_subprogram ]
!816 = metadata !{i32 786453, i32 0, metadata !"", i32 0, i32 0, i64 0, i64 0, i64 0, i32 0, null, metadata !817, i32 0, i32 0} ; [ DW_TAG_subroutine_type ]
!817 = metadata !{metadata !818, metadata !808, metadata !35, metadata !225}
!818 = metadata !{i32 786448, null, null, null, i32 0, i64 0, i64 0, i64 0, i32 0, metadata !108} ; [ DW_TAG_reference_type ]
!819 = metadata !{i32 786478, i32 0, metadata !26, metadata !"_M_init", metadata !"_M_init", metadata !"_ZNSt8ios_base7_M_initEv", metadata !28, i32 523, metadata !813, i1 false, i1 false, i32 0, i32 0, null, i32 258, i1 false, null, null, i32 0, metadata !99, i32 523} ; [ DW_TAG_subprogram ]
!820 = metadata !{i32 786478, i32 0, metadata !26, metadata !"flags", metadata !"flags", metadata !"_ZNKSt8ios_base5flagsEv", metadata !28, i32 549, metadata !821, i1 false, i1 false, i32 0, i32 0, null, i32 256, i1 false, null, null, i32 0, metadata !99, i32 549} ; [ DW_TAG_subprogram ]
!821 = metadata !{i32 786453, i32 0, metadata !"", i32 0, i32 0, i64 0, i64 0, i64 0, i32 0, null, metadata !822, i32 0, i32 0} ; [ DW_TAG_subroutine_type ]
!822 = metadata !{metadata !44, metadata !823}
!823 = metadata !{i32 786447, i32 0, metadata !"", i32 0, i32 0, i64 64, i64 64, i64 0, i32 64, metadata !824} ; [ DW_TAG_pointer_type ]
!824 = metadata !{i32 786470, null, metadata !"", null, i32 0, i64 0, i64 0, i64 0, i32 0, metadata !26} ; [ DW_TAG_const_type ]
!825 = metadata !{i32 786478, i32 0, metadata !26, metadata !"flags", metadata !"flags", metadata !"_ZNSt8ios_base5flagsESt13_Ios_Fmtflags", metadata !28, i32 560, metadata !826, i1 false, i1 false, i32 0, i32 0, null, i32 256, i1 false, null, null, i32 0, metadata !99, i32 560} ; [ DW_TAG_subprogram ]
!826 = metadata !{i32 786453, i32 0, metadata !"", i32 0, i32 0, i64 0, i64 0, i64 0, i32 0, null, metadata !827, i32 0, i32 0} ; [ DW_TAG_subroutine_type ]
!827 = metadata !{metadata !44, metadata !808, metadata !44}
!828 = metadata !{i32 786478, i32 0, metadata !26, metadata !"setf", metadata !"setf", metadata !"_ZNSt8ios_base4setfESt13_Ios_Fmtflags", metadata !28, i32 576, metadata !826, i1 false, i1 false, i32 0, i32 0, null, i32 256, i1 false, null, null, i32 0, metadata !99, i32 576} ; [ DW_TAG_subprogram ]
!829 = metadata !{i32 786478, i32 0, metadata !26, metadata !"setf", metadata !"setf", metadata !"_ZNSt8ios_base4setfESt13_Ios_FmtflagsS0_", metadata !28, i32 593, metadata !830, i1 false, i1 false, i32 0, i32 0, null, i32 256, i1 false, null, null, i32 0, metadata !99, i32 593} ; [ DW_TAG_subprogram ]
!830 = metadata !{i32 786453, i32 0, metadata !"", i32 0, i32 0, i64 0, i64 0, i64 0, i32 0, null, metadata !831, i32 0, i32 0} ; [ DW_TAG_subroutine_type ]
!831 = metadata !{metadata !44, metadata !808, metadata !44, metadata !44}
!832 = metadata !{i32 786478, i32 0, metadata !26, metadata !"unsetf", metadata !"unsetf", metadata !"_ZNSt8ios_base6unsetfESt13_Ios_Fmtflags", metadata !28, i32 608, metadata !833, i1 false, i1 false, i32 0, i32 0, null, i32 256, i1 false, null, null, i32 0, metadata !99, i32 608} ; [ DW_TAG_subprogram ]
!833 = metadata !{i32 786453, i32 0, metadata !"", i32 0, i32 0, i64 0, i64 0, i64 0, i32 0, null, metadata !834, i32 0, i32 0} ; [ DW_TAG_subroutine_type ]
!834 = metadata !{null, metadata !808, metadata !44}
!835 = metadata !{i32 786478, i32 0, metadata !26, metadata !"precision", metadata !"precision", metadata !"_ZNKSt8ios_base9precisionEv", metadata !28, i32 619, metadata !836, i1 false, i1 false, i32 0, i32 0, null, i32 256, i1 false, null, null, i32 0, metadata !99, i32 619} ; [ DW_TAG_subprogram ]
!836 = metadata !{i32 786453, i32 0, metadata !"", i32 0, i32 0, i64 0, i64 0, i64 0, i32 0, null, metadata !837, i32 0, i32 0} ; [ DW_TAG_subroutine_type ]
!837 = metadata !{metadata !37, metadata !823}
!838 = metadata !{i32 786478, i32 0, metadata !26, metadata !"precision", metadata !"precision", metadata !"_ZNSt8ios_base9precisionEx", metadata !28, i32 628, metadata !839, i1 false, i1 false, i32 0, i32 0, null, i32 256, i1 false, null, null, i32 0, metadata !99, i32 628} ; [ DW_TAG_subprogram ]
!839 = metadata !{i32 786453, i32 0, metadata !"", i32 0, i32 0, i64 0, i64 0, i64 0, i32 0, null, metadata !840, i32 0, i32 0} ; [ DW_TAG_subroutine_type ]
!840 = metadata !{metadata !37, metadata !808, metadata !37}
!841 = metadata !{i32 786478, i32 0, metadata !26, metadata !"width", metadata !"width", metadata !"_ZNKSt8ios_base5widthEv", metadata !28, i32 642, metadata !836, i1 false, i1 false, i32 0, i32 0, null, i32 256, i1 false, null, null, i32 0, metadata !99, i32 642} ; [ DW_TAG_subprogram ]
!842 = metadata !{i32 786478, i32 0, metadata !26, metadata !"width", metadata !"width", metadata !"_ZNSt8ios_base5widthEx", metadata !28, i32 651, metadata !839, i1 false, i1 false, i32 0, i32 0, null, i32 256, i1 false, null, null, i32 0, metadata !99, i32 651} ; [ DW_TAG_subprogram ]
!843 = metadata !{i32 786478, i32 0, metadata !26, metadata !"sync_with_stdio", metadata !"sync_with_stdio", metadata !"_ZNSt8ios_base15sync_with_stdioEb", metadata !28, i32 670, metadata !844, i1 false, i1 false, i32 0, i32 0, null, i32 256, i1 false, null, null, i32 0, metadata !99, i32 670} ; [ DW_TAG_subprogram ]
!844 = metadata !{i32 786453, i32 0, metadata !"", i32 0, i32 0, i64 0, i64 0, i64 0, i32 0, null, metadata !845, i32 0, i32 0} ; [ DW_TAG_subroutine_type ]
!845 = metadata !{metadata !225, metadata !225}
!846 = metadata !{i32 786478, i32 0, metadata !26, metadata !"imbue", metadata !"imbue", metadata !"_ZNSt8ios_base5imbueERKSt6locale", metadata !28, i32 682, metadata !847, i1 false, i1 false, i32 0, i32 0, null, i32 256, i1 false, null, null, i32 0, metadata !99, i32 682} ; [ DW_TAG_subprogram ]
!847 = metadata !{i32 786453, i32 0, metadata !"", i32 0, i32 0, i64 0, i64 0, i64 0, i32 0, null, metadata !848, i32 0, i32 0} ; [ DW_TAG_subroutine_type ]
!848 = metadata !{metadata !126, metadata !808, metadata !274}
!849 = metadata !{i32 786478, i32 0, metadata !26, metadata !"getloc", metadata !"getloc", metadata !"_ZNKSt8ios_base6getlocEv", metadata !28, i32 693, metadata !850, i1 false, i1 false, i32 0, i32 0, null, i32 256, i1 false, null, null, i32 0, metadata !99, i32 693} ; [ DW_TAG_subprogram ]
!850 = metadata !{i32 786453, i32 0, metadata !"", i32 0, i32 0, i64 0, i64 0, i64 0, i32 0, null, metadata !851, i32 0, i32 0} ; [ DW_TAG_subroutine_type ]
!851 = metadata !{metadata !126, metadata !823}
!852 = metadata !{i32 786478, i32 0, metadata !26, metadata !"_M_getloc", metadata !"_M_getloc", metadata !"_ZNKSt8ios_base9_M_getlocEv", metadata !28, i32 704, metadata !853, i1 false, i1 false, i32 0, i32 0, null, i32 256, i1 false, null, null, i32 0, metadata !99, i32 704} ; [ DW_TAG_subprogram ]
!853 = metadata !{i32 786453, i32 0, metadata !"", i32 0, i32 0, i64 0, i64 0, i64 0, i32 0, null, metadata !854, i32 0, i32 0} ; [ DW_TAG_subroutine_type ]
!854 = metadata !{metadata !274, metadata !823}
!855 = metadata !{i32 786478, i32 0, metadata !26, metadata !"xalloc", metadata !"xalloc", metadata !"_ZNSt8ios_base6xallocEv", metadata !28, i32 723, metadata !33, i1 false, i1 false, i32 0, i32 0, null, i32 256, i1 false, null, null, i32 0, metadata !99, i32 723} ; [ DW_TAG_subprogram ]
!856 = metadata !{i32 786478, i32 0, metadata !26, metadata !"iword", metadata !"iword", metadata !"_ZNSt8ios_base5iwordEi", metadata !28, i32 739, metadata !857, i1 false, i1 false, i32 0, i32 0, null, i32 256, i1 false, null, null, i32 0, metadata !99, i32 739} ; [ DW_TAG_subprogram ]
!857 = metadata !{i32 786453, i32 0, metadata !"", i32 0, i32 0, i64 0, i64 0, i64 0, i32 0, null, metadata !858, i32 0, i32 0} ; [ DW_TAG_subroutine_type ]
!858 = metadata !{metadata !859, metadata !808, metadata !35}
!859 = metadata !{i32 786448, null, null, null, i32 0, i64 0, i64 0, i64 0, i32 0, metadata !113} ; [ DW_TAG_reference_type ]
!860 = metadata !{i32 786478, i32 0, metadata !26, metadata !"pword", metadata !"pword", metadata !"_ZNSt8ios_base5pwordEi", metadata !28, i32 760, metadata !861, i1 false, i1 false, i32 0, i32 0, null, i32 256, i1 false, null, null, i32 0, metadata !99, i32 760} ; [ DW_TAG_subprogram ]
!861 = metadata !{i32 786453, i32 0, metadata !"", i32 0, i32 0, i64 0, i64 0, i64 0, i32 0, null, metadata !862, i32 0, i32 0} ; [ DW_TAG_subroutine_type ]
!862 = metadata !{metadata !863, metadata !808, metadata !35}
!863 = metadata !{i32 786448, null, null, null, i32 0, i64 0, i64 0, i64 0, i32 0, metadata !111} ; [ DW_TAG_reference_type ]
!864 = metadata !{i32 786478, i32 0, metadata !26, metadata !"~ios_base", metadata !"~ios_base", metadata !"", metadata !28, i32 776, metadata !813, i1 false, i1 false, i32 1, i32 0, metadata !26, i32 256, i1 false, null, null, i32 0, metadata !99, i32 776} ; [ DW_TAG_subprogram ]
!865 = metadata !{i32 786478, i32 0, metadata !26, metadata !"ios_base", metadata !"ios_base", metadata !"", metadata !28, i32 779, metadata !813, i1 false, i1 false, i32 0, i32 0, null, i32 258, i1 false, null, null, i32 0, metadata !99, i32 779} ; [ DW_TAG_subprogram ]
!866 = metadata !{i32 786478, i32 0, metadata !26, metadata !"ios_base", metadata !"ios_base", metadata !"", metadata !28, i32 784, metadata !867, i1 false, i1 false, i32 0, i32 0, null, i32 257, i1 false, null, null, i32 0, metadata !99, i32 784} ; [ DW_TAG_subprogram ]
!867 = metadata !{i32 786453, i32 0, metadata !"", i32 0, i32 0, i64 0, i64 0, i64 0, i32 0, null, metadata !868, i32 0, i32 0} ; [ DW_TAG_subroutine_type ]
!868 = metadata !{null, metadata !808, metadata !869}
!869 = metadata !{i32 786448, null, null, null, i32 0, i64 0, i64 0, i64 0, i32 0, metadata !824} ; [ DW_TAG_reference_type ]
!870 = metadata !{i32 786478, i32 0, metadata !26, metadata !"operator=", metadata !"operator=", metadata !"_ZNSt8ios_baseaSERKS_", metadata !28, i32 787, metadata !871, i1 false, i1 false, i32 0, i32 0, null, i32 257, i1 false, null, null, i32 0, metadata !99, i32 787} ; [ DW_TAG_subprogram ]
!871 = metadata !{i32 786453, i32 0, metadata !"", i32 0, i32 0, i64 0, i64 0, i64 0, i32 0, null, metadata !872, i32 0, i32 0} ; [ DW_TAG_subroutine_type ]
!872 = metadata !{metadata !91, metadata !808, metadata !869}
!873 = metadata !{i32 786470, null, metadata !"", null, i32 0, i64 0, i64 0, i64 0, i32 0, metadata !44} ; [ DW_TAG_const_type ]
!874 = metadata !{i32 786484, i32 0, metadata !26, metadata !"dec", metadata !"dec", metadata !"dec", metadata !28, i32 268, metadata !873, i32 1, i32 1, i17 2} ; [ DW_TAG_variable ]
!875 = metadata !{i32 786484, i32 0, metadata !26, metadata !"fixed", metadata !"fixed", metadata !"fixed", metadata !28, i32 271, metadata !873, i32 1, i32 1, i17 4} ; [ DW_TAG_variable ]
!876 = metadata !{i32 786484, i32 0, metadata !26, metadata !"hex", metadata !"hex", metadata !"hex", metadata !28, i32 274, metadata !873, i32 1, i32 1, i17 8} ; [ DW_TAG_variable ]
!877 = metadata !{i32 786484, i32 0, metadata !26, metadata !"internal", metadata !"internal", metadata !"internal", metadata !28, i32 279, metadata !873, i32 1, i32 1, i17 16} ; [ DW_TAG_variable ]
!878 = metadata !{i32 786484, i32 0, metadata !26, metadata !"left", metadata !"left", metadata !"left", metadata !28, i32 283, metadata !873, i32 1, i32 1, i17 32} ; [ DW_TAG_variable ]
!879 = metadata !{i32 786484, i32 0, metadata !26, metadata !"oct", metadata !"oct", metadata !"oct", metadata !28, i32 286, metadata !873, i32 1, i32 1, i17 64} ; [ DW_TAG_variable ]
!880 = metadata !{i32 786484, i32 0, metadata !26, metadata !"right", metadata !"right", metadata !"right", metadata !28, i32 290, metadata !873, i32 1, i32 1, i17 128} ; [ DW_TAG_variable ]
!881 = metadata !{i32 786484, i32 0, metadata !26, metadata !"scientific", metadata !"scientific", metadata !"scientific", metadata !28, i32 293, metadata !873, i32 1, i32 1, i17 256} ; [ DW_TAG_variable ]
!882 = metadata !{i32 786484, i32 0, metadata !26, metadata !"showbase", metadata !"showbase", metadata !"showbase", metadata !28, i32 297, metadata !873, i32 1, i32 1, i17 512} ; [ DW_TAG_variable ]
!883 = metadata !{i32 786484, i32 0, metadata !26, metadata !"showpoint", metadata !"showpoint", metadata !"showpoint", metadata !28, i32 301, metadata !873, i32 1, i32 1, i17 1024} ; [ DW_TAG_variable ]
!884 = metadata !{i32 786484, i32 0, metadata !26, metadata !"showpos", metadata !"showpos", metadata !"showpos", metadata !28, i32 304, metadata !873, i32 1, i32 1, i17 2048} ; [ DW_TAG_variable ]
!885 = metadata !{i32 786484, i32 0, metadata !26, metadata !"skipws", metadata !"skipws", metadata !"skipws", metadata !28, i32 307, metadata !873, i32 1, i32 1, i17 4096} ; [ DW_TAG_variable ]
!886 = metadata !{i32 786484, i32 0, metadata !26, metadata !"unitbuf", metadata !"unitbuf", metadata !"unitbuf", metadata !28, i32 310, metadata !873, i32 1, i32 1, i17 8192} ; [ DW_TAG_variable ]
!887 = metadata !{i32 786484, i32 0, metadata !26, metadata !"uppercase", metadata !"uppercase", metadata !"uppercase", metadata !28, i32 314, metadata !873, i32 1, i32 1, i17 16384} ; [ DW_TAG_variable ]
!888 = metadata !{i32 786484, i32 0, metadata !26, metadata !"adjustfield", metadata !"adjustfield", metadata !"adjustfield", metadata !28, i32 317, metadata !873, i32 1, i32 1, i17 176} ; [ DW_TAG_variable ]
!889 = metadata !{i32 786484, i32 0, metadata !26, metadata !"basefield", metadata !"basefield", metadata !"basefield", metadata !28, i32 320, metadata !873, i32 1, i32 1, i17 74} ; [ DW_TAG_variable ]
!890 = metadata !{i32 786484, i32 0, metadata !26, metadata !"floatfield", metadata !"floatfield", metadata !"floatfield", metadata !28, i32 323, metadata !873, i32 1, i32 1, i17 260} ; [ DW_TAG_variable ]
!891 = metadata !{i32 786484, i32 0, metadata !26, metadata !"badbit", metadata !"badbit", metadata !"badbit", metadata !28, i32 341, metadata !892, i32 1, i32 1, i17 1} ; [ DW_TAG_variable ]
!892 = metadata !{i32 786470, null, metadata !"", null, i32 0, i64 0, i64 0, i64 0, i32 0, metadata !67} ; [ DW_TAG_const_type ]
!893 = metadata !{i32 786484, i32 0, metadata !26, metadata !"eofbit", metadata !"eofbit", metadata !"eofbit", metadata !28, i32 344, metadata !892, i32 1, i32 1, i17 2} ; [ DW_TAG_variable ]
!894 = metadata !{i32 786484, i32 0, metadata !26, metadata !"failbit", metadata !"failbit", metadata !"failbit", metadata !28, i32 349, metadata !892, i32 1, i32 1, i17 4} ; [ DW_TAG_variable ]
!895 = metadata !{i32 786484, i32 0, metadata !26, metadata !"goodbit", metadata !"goodbit", metadata !"goodbit", metadata !28, i32 352, metadata !892, i32 1, i32 1, i17 0} ; [ DW_TAG_variable ]
!896 = metadata !{i32 786484, i32 0, metadata !26, metadata !"app", metadata !"app", metadata !"app", metadata !28, i32 371, metadata !897, i32 1, i32 1, i17 1} ; [ DW_TAG_variable ]
!897 = metadata !{i32 786470, null, metadata !"", null, i32 0, i64 0, i64 0, i64 0, i32 0, metadata !898} ; [ DW_TAG_const_type ]
!898 = metadata !{i32 786454, metadata !26, metadata !"openmode", metadata !28, i32 368, i64 0, i64 0, i64 0, i32 0, metadata !899} ; [ DW_TAG_typedef ]
!899 = metadata !{i32 786436, metadata !27, metadata !"_Ios_Openmode", metadata !28, i32 111, i64 17, i64 32, i32 0, i32 0, null, metadata !900, i32 0, i32 0} ; [ DW_TAG_enumeration_type ]
!900 = metadata !{metadata !901, metadata !902, metadata !903, metadata !904, metadata !905, metadata !906, metadata !907}
!901 = metadata !{i32 786472, metadata !"_S_app", i64 1} ; [ DW_TAG_enumerator ]
!902 = metadata !{i32 786472, metadata !"_S_ate", i64 2} ; [ DW_TAG_enumerator ]
!903 = metadata !{i32 786472, metadata !"_S_bin", i64 4} ; [ DW_TAG_enumerator ]
!904 = metadata !{i32 786472, metadata !"_S_in", i64 8} ; [ DW_TAG_enumerator ]
!905 = metadata !{i32 786472, metadata !"_S_out", i64 16} ; [ DW_TAG_enumerator ]
!906 = metadata !{i32 786472, metadata !"_S_trunc", i64 32} ; [ DW_TAG_enumerator ]
!907 = metadata !{i32 786472, metadata !"_S_ios_openmode_end", i64 65536} ; [ DW_TAG_enumerator ]
!908 = metadata !{i32 786484, i32 0, metadata !26, metadata !"ate", metadata !"ate", metadata !"ate", metadata !28, i32 374, metadata !897, i32 1, i32 1, i17 2} ; [ DW_TAG_variable ]
!909 = metadata !{i32 786484, i32 0, metadata !26, metadata !"binary", metadata !"binary", metadata !"binary", metadata !28, i32 379, metadata !897, i32 1, i32 1, i17 4} ; [ DW_TAG_variable ]
!910 = metadata !{i32 786484, i32 0, metadata !26, metadata !"in", metadata !"in", metadata !"in", metadata !28, i32 382, metadata !897, i32 1, i32 1, i17 8} ; [ DW_TAG_variable ]
!911 = metadata !{i32 786484, i32 0, metadata !26, metadata !"out", metadata !"out", metadata !"out", metadata !28, i32 385, metadata !897, i32 1, i32 1, i17 16} ; [ DW_TAG_variable ]
!912 = metadata !{i32 786484, i32 0, metadata !26, metadata !"trunc", metadata !"trunc", metadata !"trunc", metadata !28, i32 388, metadata !897, i32 1, i32 1, i17 32} ; [ DW_TAG_variable ]
!913 = metadata !{i32 786484, i32 0, metadata !26, metadata !"beg", metadata !"beg", metadata !"beg", metadata !28, i32 403, metadata !914, i32 1, i32 1, i17 0} ; [ DW_TAG_variable ]
!914 = metadata !{i32 786470, null, metadata !"", null, i32 0, i64 0, i64 0, i64 0, i32 0, metadata !915} ; [ DW_TAG_const_type ]
!915 = metadata !{i32 786454, metadata !26, metadata !"seekdir", metadata !28, i32 400, i64 0, i64 0, i64 0, i32 0, metadata !916} ; [ DW_TAG_typedef ]
!916 = metadata !{i32 786436, metadata !27, metadata !"_Ios_Seekdir", metadata !28, i32 188, i64 17, i64 32, i32 0, i32 0, null, metadata !917, i32 0, i32 0} ; [ DW_TAG_enumeration_type ]
!917 = metadata !{metadata !918, metadata !919, metadata !920, metadata !921}
!918 = metadata !{i32 786472, metadata !"_S_beg", i64 0} ; [ DW_TAG_enumerator ]
!919 = metadata !{i32 786472, metadata !"_S_cur", i64 1} ; [ DW_TAG_enumerator ]
!920 = metadata !{i32 786472, metadata !"_S_end", i64 2} ; [ DW_TAG_enumerator ]
!921 = metadata !{i32 786472, metadata !"_S_ios_seekdir_end", i64 65536} ; [ DW_TAG_enumerator ]
!922 = metadata !{i32 786484, i32 0, metadata !26, metadata !"cur", metadata !"cur", metadata !"cur", metadata !28, i32 406, metadata !914, i32 1, i32 1, i17 1} ; [ DW_TAG_variable ]
!923 = metadata !{i32 786484, i32 0, metadata !26, metadata !"end", metadata !"end", metadata !"end", metadata !28, i32 409, metadata !914, i32 1, i32 1, i17 2} ; [ DW_TAG_variable ]
!924 = metadata !{i32 786484, i32 0, metadata !126, metadata !"none", metadata !"none", metadata !"none", metadata !128, i32 97, metadata !925, i32 1, i32 1, i32 0} ; [ DW_TAG_variable ]
!925 = metadata !{i32 786470, null, metadata !"", null, i32 0, i64 0, i64 0, i64 0, i32 0, metadata !230} ; [ DW_TAG_const_type ]
!926 = metadata !{i32 786484, i32 0, metadata !126, metadata !"ctype", metadata !"ctype", metadata !"ctype", metadata !128, i32 98, metadata !925, i32 1, i32 1, i32 1} ; [ DW_TAG_variable ]
!927 = metadata !{i32 786484, i32 0, metadata !126, metadata !"numeric", metadata !"numeric", metadata !"numeric", metadata !128, i32 99, metadata !925, i32 1, i32 1, i32 2} ; [ DW_TAG_variable ]
!928 = metadata !{i32 786484, i32 0, metadata !126, metadata !"collate", metadata !"collate", metadata !"collate", metadata !128, i32 100, metadata !925, i32 1, i32 1, i32 4} ; [ DW_TAG_variable ]
!929 = metadata !{i32 786484, i32 0, metadata !126, metadata !"time", metadata !"time", metadata !"time", metadata !128, i32 101, metadata !925, i32 1, i32 1, i32 8} ; [ DW_TAG_variable ]
!930 = metadata !{i32 786484, i32 0, metadata !126, metadata !"monetary", metadata !"monetary", metadata !"monetary", metadata !128, i32 102, metadata !925, i32 1, i32 1, i32 16} ; [ DW_TAG_variable ]
!931 = metadata !{i32 786484, i32 0, metadata !126, metadata !"messages", metadata !"messages", metadata !"messages", metadata !128, i32 103, metadata !925, i32 1, i32 1, i32 32} ; [ DW_TAG_variable ]
!932 = metadata !{i32 786484, i32 0, metadata !126, metadata !"all", metadata !"all", metadata !"all", metadata !128, i32 104, metadata !925, i32 1, i32 1, i32 63} ; [ DW_TAG_variable ]
!933 = metadata !{i32 786484, i32 0, metadata !295, metadata !"npos", metadata !"npos", metadata !"npos", metadata !299, i32 270, metadata !934, i32 1, i32 1, i64 -1} ; [ DW_TAG_variable ]
!934 = metadata !{i32 786470, null, metadata !"", null, i32 0, i64 0, i64 0, i64 0, i32 0, metadata !390} ; [ DW_TAG_const_type ]
!935 = metadata !{i32 786484, i32 0, metadata !936, metadata !"__ioinit", metadata !"__ioinit", metadata !"_ZStL8__ioinit", metadata !937, i32 72, metadata !938, i32 1, i32 1, null} ; [ DW_TAG_variable ]
!936 = metadata !{i32 786489, null, metadata !"std", metadata !937, i32 42} ; [ DW_TAG_namespace ]
!937 = metadata !{i32 786473, metadata !"D:/Xilinx/Vivado_HLS/2016.2/win64/tools/clang/bin\5C..\5Clib\5Cclang\5C3.1/../../../include/c++/4.5.2\5Ciostream", metadata !"C:\5CUsers\5CMatthew\5CDesktop\5Cembs_open2", null} ; [ DW_TAG_file_type ]
!938 = metadata !{i32 786434, metadata !26, metadata !"Init", metadata !28, i32 531, i64 8, i64 8, i32 0, i32 0, null, metadata !939, i32 0, null, null} ; [ DW_TAG_class_type ]
!939 = metadata !{metadata !940, metadata !944, metadata !945}
!940 = metadata !{i32 786478, i32 0, metadata !938, metadata !"Init", metadata !"Init", metadata !"", metadata !28, i32 535, metadata !941, i1 false, i1 false, i32 0, i32 0, null, i32 256, i1 false, null, null, i32 0, metadata !99, i32 535} ; [ DW_TAG_subprogram ]
!941 = metadata !{i32 786453, i32 0, metadata !"", i32 0, i32 0, i64 0, i64 0, i64 0, i32 0, null, metadata !942, i32 0, i32 0} ; [ DW_TAG_subroutine_type ]
!942 = metadata !{null, metadata !943}
!943 = metadata !{i32 786447, i32 0, metadata !"", i32 0, i32 0, i64 64, i64 64, i64 0, i32 64, metadata !938} ; [ DW_TAG_pointer_type ]
!944 = metadata !{i32 786478, i32 0, metadata !938, metadata !"~Init", metadata !"~Init", metadata !"", metadata !28, i32 536, metadata !941, i1 false, i1 false, i32 0, i32 0, null, i32 256, i1 false, null, null, i32 0, metadata !99, i32 536} ; [ DW_TAG_subprogram ]
!945 = metadata !{i32 786474, metadata !938, null, metadata !28, i32 0, i64 0, i64 0, i64 0, i32 0, metadata !26} ; [ DW_TAG_friend ]
!946 = metadata !{i32 786484, i32 0, null, metadata !"_sys_nerr", metadata !"_sys_nerr", metadata !"", metadata !947, i32 157, metadata !35, i32 0, i32 1, null} ; [ DW_TAG_variable ]
!947 = metadata !{i32 786473, metadata !"D:/Xilinx/Vivado_HLS/2016.2/win64/tools/clang/bin/../lib/clang/3.1/../../../x86_64-w64-mingw32/include\5Cstdlib.h", metadata !"C:\5CUsers\5CMatthew\5CDesktop\5Cembs_open2", null} ; [ DW_TAG_file_type ]
!948 = metadata !{i32 786484, i32 0, null, metadata !"__imp__osplatform", metadata !"__imp__osplatform", metadata !"", metadata !947, i32 248, metadata !949, i32 0, i32 1, null} ; [ DW_TAG_variable ]
!949 = metadata !{i32 786447, null, metadata !"", null, i32 0, i64 64, i64 64, i64 0, i32 0, metadata !23} ; [ DW_TAG_pointer_type ]
!950 = metadata !{i32 786484, i32 0, null, metadata !"__imp__osver", metadata !"__imp__osver", metadata !"", metadata !947, i32 257, metadata !949, i32 0, i32 1, null} ; [ DW_TAG_variable ]
!951 = metadata !{i32 786484, i32 0, null, metadata !"__imp__winver", metadata !"__imp__winver", metadata !"", metadata !947, i32 266, metadata !949, i32 0, i32 1, null} ; [ DW_TAG_variable ]
!952 = metadata !{i32 786484, i32 0, null, metadata !"__imp__winmajor", metadata !"__imp__winmajor", metadata !"", metadata !947, i32 275, metadata !949, i32 0, i32 1, null} ; [ DW_TAG_variable ]
!953 = metadata !{i32 786484, i32 0, null, metadata !"__imp__winminor", metadata !"__imp__winminor", metadata !"", metadata !947, i32 284, metadata !949, i32 0, i32 1, null} ; [ DW_TAG_variable ]
!954 = metadata !{i32 786484, i32 0, null, metadata !"_amblksiz", metadata !"_amblksiz", metadata !"", metadata !955, i32 53, metadata !23, i32 0, i32 1, null} ; [ DW_TAG_variable ]
!955 = metadata !{i32 786473, metadata !"D:/Xilinx/Vivado_HLS/2016.2/win64/tools/clang/bin/../lib/clang/3.1/../../../x86_64-w64-mingw32/include\5Cmalloc.h", metadata !"C:\5CUsers\5CMatthew\5CDesktop\5Cembs_open2", null} ; [ DW_TAG_file_type ]
!956 = metadata !{i32 786484, i32 0, null, metadata !"__digits", metadata !"__digits", metadata !"_ZN9__gnu_cxx24__numeric_traits_integer8__digitsE", metadata !957, i32 74, metadata !958, i32 0, i32 1, null} ; [ DW_TAG_variable ]
!957 = metadata !{i32 786473, metadata !"D:/Xilinx/Vivado_HLS/2016.2/win64/tools/clang/bin\5C..\5Clib\5Cclang\5C3.1/../../../include/c++/4.5.2\5Cext/numeric_traits.h", metadata !"C:\5CUsers\5CMatthew\5CDesktop\5Cembs_open2", null} ; [ DW_TAG_file_type ]
!958 = metadata !{i32 786470, null, metadata !"", null, i32 0, i64 0, i64 0, i64 0, i32 0, metadata !35} ; [ DW_TAG_const_type ]
!959 = metadata !{i32 786484, i32 0, null, metadata !"__max_digits10", metadata !"__max_digits10", metadata !"_ZN9__gnu_cxx25__numeric_traits_floating14__max_digits10E", metadata !957, i32 109, metadata !958, i32 0, i32 1, null} ; [ DW_TAG_variable ]
!960 = metadata !{i32 786484, i32 0, null, metadata !"__digits10", metadata !"__digits10", metadata !"_ZN9__gnu_cxx25__numeric_traits_floating10__digits10E", metadata !957, i32 115, metadata !958, i32 0, i32 1, null} ; [ DW_TAG_variable ]
!961 = metadata !{i32 786484, i32 0, null, metadata !"__max_exponent10", metadata !"__max_exponent10", metadata !"_ZN9__gnu_cxx25__numeric_traits_floating16__max_exponent10E", metadata !957, i32 118, metadata !958, i32 0, i32 1, null} ; [ DW_TAG_variable ]
!962 = metadata !{i32 786484, i32 0, null, metadata !"__globallocalestatus", metadata !"__globallocalestatus", metadata !"", metadata !963, i32 76, metadata !35, i32 0, i32 1, null} ; [ DW_TAG_variable ]
!963 = metadata !{i32 786473, metadata !"D:/Xilinx/Vivado_HLS/2016.2/win64/tools/clang/bin/../lib/clang/3.1/../../../x86_64-w64-mingw32/include\5Cctype.h", metadata !"C:\5CUsers\5CMatthew\5CDesktop\5Cembs_open2", null} ; [ DW_TAG_file_type ]
!964 = metadata !{i32 786484, i32 0, null, metadata !"__locale_changed", metadata !"__locale_changed", metadata !"", metadata !963, i32 77, metadata !35, i32 0, i32 1, null} ; [ DW_TAG_variable ]
!965 = metadata !{i32 786484, i32 0, null, metadata !"__initiallocinfo", metadata !"__initiallocinfo", metadata !"", metadata !963, i32 78, metadata !966, i32 0, i32 1, null} ; [ DW_TAG_variable ]
!966 = metadata !{i32 786434, null, metadata !"threadlocaleinfostruct", metadata !967, i32 629, i64 2816, i64 64, i32 0, i32 0, null, metadata !968, i32 0, null, null} ; [ DW_TAG_class_type ]
!967 = metadata !{i32 786473, metadata !"D:/Xilinx/Vivado_HLS/2016.2/win64/tools/clang/bin/../lib/clang/3.1/../../../x86_64-w64-mingw32/include\5C_mingw.h", metadata !"C:\5CUsers\5CMatthew\5CDesktop\5Cembs_open2", null} ; [ DW_TAG_file_type ]
!968 = metadata !{metadata !969, metadata !970, metadata !971, metadata !972, metadata !977, metadata !986, metadata !996, metadata !997, metadata !998, metadata !999, metadata !1000, metadata !1001, metadata !1024, metadata !1025, metadata !1027, metadata !1030, metadata !1034, metadata !1035}
!969 = metadata !{i32 786445, metadata !966, metadata !"refcount", metadata !967, i32 630, i64 32, i64 32, i64 0, i32 0, metadata !35} ; [ DW_TAG_member ]
!970 = metadata !{i32 786445, metadata !966, metadata !"lc_codepage", metadata !967, i32 631, i64 32, i64 32, i64 32, i32 0, metadata !23} ; [ DW_TAG_member ]
!971 = metadata !{i32 786445, metadata !966, metadata !"lc_collate_cp", metadata !967, i32 632, i64 32, i64 32, i64 64, i32 0, metadata !23} ; [ DW_TAG_member ]
!972 = metadata !{i32 786445, metadata !966, metadata !"lc_handle", metadata !967, i32 633, i64 192, i64 32, i64 96, i32 0, metadata !973} ; [ DW_TAG_member ]
!973 = metadata !{i32 786433, null, metadata !"", null, i32 0, i64 192, i64 32, i32 0, i32 0, metadata !974, metadata !975, i32 0, i32 0} ; [ DW_TAG_array_type ]
!974 = metadata !{i32 786468, null, metadata !"long unsigned int", null, i32 0, i64 32, i64 32, i64 0, i32 0, i32 7} ; [ DW_TAG_base_type ]
!975 = metadata !{metadata !976}
!976 = metadata !{i32 786465, i64 0, i64 5}       ; [ DW_TAG_subrange_type ]
!977 = metadata !{i32 786445, metadata !966, metadata !"lc_id", metadata !967, i32 634, i64 288, i64 16, i64 288, i32 0, metadata !978} ; [ DW_TAG_member ]
!978 = metadata !{i32 786433, null, metadata !"", null, i32 0, i64 288, i64 16, i32 0, i32 0, metadata !979, metadata !975, i32 0, i32 0} ; [ DW_TAG_array_type ]
!979 = metadata !{i32 786454, null, metadata !"LC_ID", metadata !967, i32 624, i64 0, i64 0, i64 0, i32 0, metadata !980} ; [ DW_TAG_typedef ]
!980 = metadata !{i32 786434, null, metadata !"tagLC_ID", metadata !967, i32 620, i64 48, i64 16, i32 0, i32 0, null, metadata !981, i32 0, null, null} ; [ DW_TAG_class_type ]
!981 = metadata !{metadata !982, metadata !984, metadata !985}
!982 = metadata !{i32 786445, metadata !980, metadata !"wLanguage", metadata !967, i32 621, i64 16, i64 16, i64 0, i32 0, metadata !983} ; [ DW_TAG_member ]
!983 = metadata !{i32 786468, null, metadata !"unsigned short", null, i32 0, i64 16, i64 16, i64 0, i32 0, i32 7} ; [ DW_TAG_base_type ]
!984 = metadata !{i32 786445, metadata !980, metadata !"wCountry", metadata !967, i32 622, i64 16, i64 16, i64 16, i32 0, metadata !983} ; [ DW_TAG_member ]
!985 = metadata !{i32 786445, metadata !980, metadata !"wCodePage", metadata !967, i32 623, i64 16, i64 16, i64 32, i32 0, metadata !983} ; [ DW_TAG_member ]
!986 = metadata !{i32 786445, metadata !966, metadata !"lc_category", metadata !967, i32 640, i64 1536, i64 64, i64 576, i32 0, metadata !987} ; [ DW_TAG_member ]
!987 = metadata !{i32 786433, null, metadata !"", null, i32 0, i64 1536, i64 64, i32 0, i32 0, metadata !988, metadata !975, i32 0, i32 0} ; [ DW_TAG_array_type ]
!988 = metadata !{i32 786434, metadata !966, metadata !"", metadata !967, i32 635, i64 256, i64 64, i32 0, i32 0, null, metadata !989, i32 0, null, null} ; [ DW_TAG_class_type ]
!989 = metadata !{metadata !990, metadata !991, metadata !994, metadata !995}
!990 = metadata !{i32 786445, metadata !988, metadata !"locale", metadata !967, i32 636, i64 64, i64 64, i64 0, i32 0, metadata !200} ; [ DW_TAG_member ]
!991 = metadata !{i32 786445, metadata !988, metadata !"wlocale", metadata !967, i32 637, i64 64, i64 64, i64 64, i32 0, metadata !992} ; [ DW_TAG_member ]
!992 = metadata !{i32 786447, null, metadata !"", null, i32 0, i64 64, i64 64, i64 0, i32 0, metadata !993} ; [ DW_TAG_pointer_type ]
!993 = metadata !{i32 786468, null, metadata !"wchar_t", null, i32 0, i64 16, i64 16, i64 0, i32 0, i32 7} ; [ DW_TAG_base_type ]
!994 = metadata !{i32 786445, metadata !988, metadata !"refcount", metadata !967, i32 638, i64 64, i64 64, i64 128, i32 0, metadata !162} ; [ DW_TAG_member ]
!995 = metadata !{i32 786445, metadata !988, metadata !"wrefcount", metadata !967, i32 639, i64 64, i64 64, i64 192, i32 0, metadata !162} ; [ DW_TAG_member ]
!996 = metadata !{i32 786445, metadata !966, metadata !"lc_clike", metadata !967, i32 641, i64 32, i64 32, i64 2112, i32 0, metadata !35} ; [ DW_TAG_member ]
!997 = metadata !{i32 786445, metadata !966, metadata !"mb_cur_max", metadata !967, i32 642, i64 32, i64 32, i64 2144, i32 0, metadata !35} ; [ DW_TAG_member ]
!998 = metadata !{i32 786445, metadata !966, metadata !"lconv_intl_refcount", metadata !967, i32 643, i64 64, i64 64, i64 2176, i32 0, metadata !162} ; [ DW_TAG_member ]
!999 = metadata !{i32 786445, metadata !966, metadata !"lconv_num_refcount", metadata !967, i32 644, i64 64, i64 64, i64 2240, i32 0, metadata !162} ; [ DW_TAG_member ]
!1000 = metadata !{i32 786445, metadata !966, metadata !"lconv_mon_refcount", metadata !967, i32 645, i64 64, i64 64, i64 2304, i32 0, metadata !162} ; [ DW_TAG_member ]
!1001 = metadata !{i32 786445, metadata !966, metadata !"lconv", metadata !967, i32 646, i64 64, i64 64, i64 2368, i32 0, metadata !1002} ; [ DW_TAG_member ]
!1002 = metadata !{i32 786447, null, metadata !"", null, i32 0, i64 64, i64 64, i64 0, i32 0, metadata !1003} ; [ DW_TAG_pointer_type ]
!1003 = metadata !{i32 786434, null, metadata !"lconv", metadata !1004, i32 41, i64 704, i64 64, i32 0, i32 0, null, metadata !1005, i32 0, null, null} ; [ DW_TAG_class_type ]
!1004 = metadata !{i32 786473, metadata !"D:/Xilinx/Vivado_HLS/2016.2/win64/tools/clang/bin/../lib/clang/3.1/../../../x86_64-w64-mingw32/include\5Clocale.h", metadata !"C:\5CUsers\5CMatthew\5CDesktop\5Cembs_open2", null} ; [ DW_TAG_file_type ]
!1005 = metadata !{metadata !1006, metadata !1007, metadata !1008, metadata !1009, metadata !1010, metadata !1011, metadata !1012, metadata !1013, metadata !1014, metadata !1015, metadata !1016, metadata !1017, metadata !1018, metadata !1019, metadata !1020, metadata !1021, metadata !1022, metadata !1023}
!1006 = metadata !{i32 786445, metadata !1003, metadata !"decimal_point", metadata !1004, i32 42, i64 64, i64 64, i64 0, i32 0, metadata !200} ; [ DW_TAG_member ]
!1007 = metadata !{i32 786445, metadata !1003, metadata !"thousands_sep", metadata !1004, i32 43, i64 64, i64 64, i64 64, i32 0, metadata !200} ; [ DW_TAG_member ]
!1008 = metadata !{i32 786445, metadata !1003, metadata !"grouping", metadata !1004, i32 44, i64 64, i64 64, i64 128, i32 0, metadata !200} ; [ DW_TAG_member ]
!1009 = metadata !{i32 786445, metadata !1003, metadata !"int_curr_symbol", metadata !1004, i32 45, i64 64, i64 64, i64 192, i32 0, metadata !200} ; [ DW_TAG_member ]
!1010 = metadata !{i32 786445, metadata !1003, metadata !"currency_symbol", metadata !1004, i32 46, i64 64, i64 64, i64 256, i32 0, metadata !200} ; [ DW_TAG_member ]
!1011 = metadata !{i32 786445, metadata !1003, metadata !"mon_decimal_point", metadata !1004, i32 47, i64 64, i64 64, i64 320, i32 0, metadata !200} ; [ DW_TAG_member ]
!1012 = metadata !{i32 786445, metadata !1003, metadata !"mon_thousands_sep", metadata !1004, i32 48, i64 64, i64 64, i64 384, i32 0, metadata !200} ; [ DW_TAG_member ]
!1013 = metadata !{i32 786445, metadata !1003, metadata !"mon_grouping", metadata !1004, i32 49, i64 64, i64 64, i64 448, i32 0, metadata !200} ; [ DW_TAG_member ]
!1014 = metadata !{i32 786445, metadata !1003, metadata !"positive_sign", metadata !1004, i32 50, i64 64, i64 64, i64 512, i32 0, metadata !200} ; [ DW_TAG_member ]
!1015 = metadata !{i32 786445, metadata !1003, metadata !"negative_sign", metadata !1004, i32 51, i64 64, i64 64, i64 576, i32 0, metadata !200} ; [ DW_TAG_member ]
!1016 = metadata !{i32 786445, metadata !1003, metadata !"int_frac_digits", metadata !1004, i32 52, i64 8, i64 8, i64 640, i32 0, metadata !165} ; [ DW_TAG_member ]
!1017 = metadata !{i32 786445, metadata !1003, metadata !"frac_digits", metadata !1004, i32 53, i64 8, i64 8, i64 648, i32 0, metadata !165} ; [ DW_TAG_member ]
!1018 = metadata !{i32 786445, metadata !1003, metadata !"p_cs_precedes", metadata !1004, i32 54, i64 8, i64 8, i64 656, i32 0, metadata !165} ; [ DW_TAG_member ]
!1019 = metadata !{i32 786445, metadata !1003, metadata !"p_sep_by_space", metadata !1004, i32 55, i64 8, i64 8, i64 664, i32 0, metadata !165} ; [ DW_TAG_member ]
!1020 = metadata !{i32 786445, metadata !1003, metadata !"n_cs_precedes", metadata !1004, i32 56, i64 8, i64 8, i64 672, i32 0, metadata !165} ; [ DW_TAG_member ]
!1021 = metadata !{i32 786445, metadata !1003, metadata !"n_sep_by_space", metadata !1004, i32 57, i64 8, i64 8, i64 680, i32 0, metadata !165} ; [ DW_TAG_member ]
!1022 = metadata !{i32 786445, metadata !1003, metadata !"p_sign_posn", metadata !1004, i32 58, i64 8, i64 8, i64 688, i32 0, metadata !165} ; [ DW_TAG_member ]
!1023 = metadata !{i32 786445, metadata !1003, metadata !"n_sign_posn", metadata !1004, i32 59, i64 8, i64 8, i64 696, i32 0, metadata !165} ; [ DW_TAG_member ]
!1024 = metadata !{i32 786445, metadata !966, metadata !"ctype1_refcount", metadata !967, i32 647, i64 64, i64 64, i64 2432, i32 0, metadata !162} ; [ DW_TAG_member ]
!1025 = metadata !{i32 786445, metadata !966, metadata !"ctype1", metadata !967, i32 648, i64 64, i64 64, i64 2496, i32 0, metadata !1026} ; [ DW_TAG_member ]
!1026 = metadata !{i32 786447, null, metadata !"", null, i32 0, i64 64, i64 64, i64 0, i32 0, metadata !983} ; [ DW_TAG_pointer_type ]
!1027 = metadata !{i32 786445, metadata !966, metadata !"pctype", metadata !967, i32 649, i64 64, i64 64, i64 2560, i32 0, metadata !1028} ; [ DW_TAG_member ]
!1028 = metadata !{i32 786447, null, metadata !"", null, i32 0, i64 64, i64 64, i64 0, i32 0, metadata !1029} ; [ DW_TAG_pointer_type ]
!1029 = metadata !{i32 786470, null, metadata !"", null, i32 0, i64 0, i64 0, i64 0, i32 0, metadata !983} ; [ DW_TAG_const_type ]
!1030 = metadata !{i32 786445, metadata !966, metadata !"pclmap", metadata !967, i32 650, i64 64, i64 64, i64 2624, i32 0, metadata !1031} ; [ DW_TAG_member ]
!1031 = metadata !{i32 786447, null, metadata !"", null, i32 0, i64 64, i64 64, i64 0, i32 0, metadata !1032} ; [ DW_TAG_pointer_type ]
!1032 = metadata !{i32 786470, null, metadata !"", null, i32 0, i64 0, i64 0, i64 0, i32 0, metadata !1033} ; [ DW_TAG_const_type ]
!1033 = metadata !{i32 786468, null, metadata !"unsigned char", null, i32 0, i64 8, i64 8, i64 0, i32 0, i32 8} ; [ DW_TAG_base_type ]
!1034 = metadata !{i32 786445, metadata !966, metadata !"pcumap", metadata !967, i32 651, i64 64, i64 64, i64 2688, i32 0, metadata !1031} ; [ DW_TAG_member ]
!1035 = metadata !{i32 786445, metadata !966, metadata !"lc_time_curr", metadata !967, i32 652, i64 64, i64 64, i64 2752, i32 0, metadata !1036} ; [ DW_TAG_member ]
!1036 = metadata !{i32 786447, null, metadata !"", null, i32 0, i64 64, i64 64, i64 0, i32 0, metadata !1037} ; [ DW_TAG_pointer_type ]
!1037 = metadata !{i32 786434, null, metadata !"__lc_time_data", metadata !967, i32 611, i32 0, i32 0, i32 0, i32 4, null, null, i32 0} ; [ DW_TAG_class_type ]
!1038 = metadata !{i32 786484, i32 0, null, metadata !"__initiallocalestructinfo", metadata !"__initiallocalestructinfo", metadata !"", metadata !963, i32 79, metadata !1039, i32 0, i32 1, null} ; [ DW_TAG_variable ]
!1039 = metadata !{i32 786454, null, metadata !"_locale_tstruct", metadata !963, i32 616, i64 0, i64 0, i64 0, i32 0, metadata !1040} ; [ DW_TAG_typedef ]
!1040 = metadata !{i32 786434, null, metadata !"localeinfo_struct", metadata !967, i32 613, i64 128, i64 64, i32 0, i32 0, null, metadata !1041, i32 0, null, null} ; [ DW_TAG_class_type ]
!1041 = metadata !{metadata !1042, metadata !1045}
!1042 = metadata !{i32 786445, metadata !1040, metadata !"locinfo", metadata !967, i32 614, i64 64, i64 64, i64 0, i32 0, metadata !1043} ; [ DW_TAG_member ]
!1043 = metadata !{i32 786454, null, metadata !"pthreadlocinfo", metadata !967, i32 609, i64 0, i64 0, i64 0, i32 0, metadata !1044} ; [ DW_TAG_typedef ]
!1044 = metadata !{i32 786447, null, metadata !"", null, i32 0, i64 64, i64 64, i64 0, i32 0, metadata !966} ; [ DW_TAG_pointer_type ]
!1045 = metadata !{i32 786445, metadata !1040, metadata !"mbcinfo", metadata !967, i32 615, i64 64, i64 64, i64 64, i32 0, metadata !1046} ; [ DW_TAG_member ]
!1046 = metadata !{i32 786454, null, metadata !"pthreadmbcinfo", metadata !967, i32 610, i64 0, i64 0, i64 0, i32 0, metadata !1047} ; [ DW_TAG_typedef ]
!1047 = metadata !{i32 786447, null, metadata !"", null, i32 0, i64 64, i64 64, i64 0, i32 0, metadata !1048} ; [ DW_TAG_pointer_type ]
!1048 = metadata !{i32 786434, null, metadata !"threadmbcinfostruct", metadata !967, i32 608, i32 0, i32 0, i32 0, i32 4, null, null, i32 0} ; [ DW_TAG_class_type ]
!1049 = metadata !{i32 786484, i32 0, null, metadata !"_CRT_MT", metadata !"_CRT_MT", metadata !"", metadata !1050, i32 374, metadata !35, i32 0, i32 1, null} ; [ DW_TAG_variable ]
!1050 = metadata !{i32 786473, metadata !"D:/Xilinx/Vivado_HLS/2016.2/win64/tools/clang/bin\5C..\5Clib\5Cclang\5C3.1/../../../include/c++/4.5.2/x86_64-w64-mingw32\5Cbits/gthr-default.h", metadata !"C:\5CUsers\5CMatthew\5CDesktop\5Cembs_open2", null} ; [ DW_TAG_file_type ]
!1051 = metadata !{i32 786484, i32 0, metadata !1052, metadata !"nothrow", metadata !"nothrow", metadata !"_ZSt7nothrow", metadata !1053, i32 70, metadata !1054, i32 0, i32 1, null} ; [ DW_TAG_variable ]
!1052 = metadata !{i32 786489, null, metadata !"std", metadata !1053, i32 47} ; [ DW_TAG_namespace ]
!1053 = metadata !{i32 786473, metadata !"D:/Xilinx/Vivado_HLS/2016.2/win64/tools/clang/bin\5C..\5Clib\5Cclang\5C3.1/../../../include/c++/4.5.2\5Cnew", metadata !"C:\5CUsers\5CMatthew\5CDesktop\5Cembs_open2", null} ; [ DW_TAG_file_type ]
!1054 = metadata !{i32 786470, null, metadata !"", null, i32 0, i64 0, i64 0, i64 0, i32 0, metadata !1055} ; [ DW_TAG_const_type ]
!1055 = metadata !{i32 786434, metadata !1052, metadata !"nothrow_t", metadata !1053, i32 68, i64 8, i64 8, i32 0, i32 0, null, metadata !1056, i32 0, null, null} ; [ DW_TAG_class_type ]
!1056 = metadata !{i32 0}
!1057 = metadata !{i32 786484, i32 0, metadata !126, metadata !"_S_once", metadata !"_S_once", metadata !"_ZNSt6locale7_S_onceE", metadata !128, i32 305, metadata !1058, i32 0, i32 1, null} ; [ DW_TAG_variable ]
!1058 = metadata !{i32 786454, null, metadata !"__gthread_once_t", metadata !128, i32 348, i64 0, i64 0, i64 0, i32 0, metadata !1059} ; [ DW_TAG_typedef ]
!1059 = metadata !{i32 786434, null, metadata !"", metadata !1050, i32 345, i64 64, i64 32, i32 0, i32 0, null, metadata !1060, i32 0, null, null} ; [ DW_TAG_class_type ]
!1060 = metadata !{metadata !1061, metadata !1062}
!1061 = metadata !{i32 786445, metadata !1059, metadata !"done", metadata !1050, i32 346, i64 32, i64 32, i64 0, i32 0, metadata !35} ; [ DW_TAG_member ]
!1062 = metadata !{i32 786445, metadata !1059, metadata !"started", metadata !1050, i32 347, i64 32, i64 32, i64 32, i32 0, metadata !113} ; [ DW_TAG_member ]
!1063 = metadata !{i32 786484, i32 0, metadata !139, metadata !"_S_c_locale", metadata !"_S_c_locale", metadata !"_ZNSt6locale5facet11_S_c_localeE", metadata !128, i32 345, metadata !159, i32 0, i32 1, null} ; [ DW_TAG_variable ]
!1064 = metadata !{i32 786484, i32 0, metadata !139, metadata !"_S_once", metadata !"_S_once", metadata !"_ZNSt6locale5facet7_S_onceE", metadata !128, i32 351, metadata !1058, i32 0, i32 1, null} ; [ DW_TAG_variable ]
!1065 = metadata !{i32 786484, i32 0, metadata !238, metadata !"_S_refcount", metadata !"_S_refcount", metadata !"_ZNSt6locale2id11_S_refcountE", metadata !128, i32 451, metadata !94, i32 0, i32 1, null} ; [ DW_TAG_variable ]
!1066 = metadata !{i32 786484, i32 0, null, metadata !"id", metadata !"id", metadata !"_ZNSt7collate2idE", metadata !128, i32 626, metadata !238, i32 0, i32 1, null} ; [ DW_TAG_variable ]
!1067 = metadata !{i32 786484, i32 0, metadata !938, metadata !"_S_refcount", metadata !"_S_refcount", metadata !"_ZNSt8ios_base4Init11_S_refcountE", metadata !28, i32 539, metadata !94, i32 0, i32 1, null} ; [ DW_TAG_variable ]
!1068 = metadata !{i32 786484, i32 0, null, metadata !"id", metadata !"id", metadata !"_ZNSt5ctype2idE", metadata !1069, i32 611, metadata !238, i32 0, i32 1, null} ; [ DW_TAG_variable ]
!1069 = metadata !{i32 786473, metadata !"D:/Xilinx/Vivado_HLS/2016.2/win64/tools/clang/bin\5C..\5Clib\5Cclang\5C3.1/../../../include/c++/4.5.2\5Cbits/locale_facets.h", metadata !"C:\5CUsers\5CMatthew\5CDesktop\5Cembs_open2", null} ; [ DW_TAG_file_type ]
!1070 = metadata !{i32 786484, i32 0, metadata !1071, metadata !"upper", metadata !"upper", metadata !"upper", metadata !1073, i32 48, metadata !1074, i32 1, i32 1, i16 1} ; [ DW_TAG_variable ]
!1071 = metadata !{i32 786434, metadata !1072, metadata !"ctype_base", metadata !1073, i32 40, i64 8, i64 8, i32 0, i32 0, null, metadata !1056, i32 0, null, null} ; [ DW_TAG_class_type ]
!1072 = metadata !{i32 786489, null, metadata !"std", metadata !1073, i32 37} ; [ DW_TAG_namespace ]
!1073 = metadata !{i32 786473, metadata !"D:/Xilinx/Vivado_HLS/2016.2/win64/tools/clang/bin\5C..\5Clib\5Cclang\5C3.1/../../../include/c++/4.5.2/x86_64-w64-mingw32\5Cbits/ctype_base.h", metadata !"C:\5CUsers\5CMatthew\5CDesktop\5Cembs_open2", null} ; [ DW_TAG_file_type ]
!1074 = metadata !{i32 786470, null, metadata !"", null, i32 0, i64 0, i64 0, i64 0, i32 0, metadata !1075} ; [ DW_TAG_const_type ]
!1075 = metadata !{i32 786454, metadata !1071, metadata !"mask", metadata !1073, i32 47, i64 0, i64 0, i64 0, i32 0, metadata !983} ; [ DW_TAG_typedef ]
!1076 = metadata !{i32 786484, i32 0, metadata !1071, metadata !"lower", metadata !"lower", metadata !"lower", metadata !1073, i32 49, metadata !1074, i32 1, i32 1, i16 2} ; [ DW_TAG_variable ]
!1077 = metadata !{i32 786484, i32 0, metadata !1071, metadata !"alpha", metadata !"alpha", metadata !"alpha", metadata !1073, i32 50, metadata !1074, i32 1, i32 1, i16 4} ; [ DW_TAG_variable ]
!1078 = metadata !{i32 786484, i32 0, metadata !1071, metadata !"digit", metadata !"digit", metadata !"digit", metadata !1073, i32 51, metadata !1074, i32 1, i32 1, i16 8} ; [ DW_TAG_variable ]
!1079 = metadata !{i32 786484, i32 0, metadata !1071, metadata !"xdigit", metadata !"xdigit", metadata !"xdigit", metadata !1073, i32 52, metadata !1074, i32 1, i32 1, i16 16} ; [ DW_TAG_variable ]
!1080 = metadata !{i32 786484, i32 0, metadata !1071, metadata !"space", metadata !"space", metadata !"space", metadata !1073, i32 53, metadata !1074, i32 1, i32 1, i16 32} ; [ DW_TAG_variable ]
!1081 = metadata !{i32 786484, i32 0, metadata !1071, metadata !"print", metadata !"print", metadata !"print", metadata !1073, i32 54, metadata !1074, i32 1, i32 1, i16 64} ; [ DW_TAG_variable ]
!1082 = metadata !{i32 786484, i32 0, metadata !1071, metadata !"graph", metadata !"graph", metadata !"graph", metadata !1073, i32 55, metadata !1074, i32 1, i32 1, i16 524} ; [ DW_TAG_variable ]
!1083 = metadata !{i32 786484, i32 0, metadata !1071, metadata !"cntrl", metadata !"cntrl", metadata !"cntrl", metadata !1073, i32 56, metadata !1074, i32 1, i32 1, i16 256} ; [ DW_TAG_variable ]
!1084 = metadata !{i32 786484, i32 0, metadata !1071, metadata !"punct", metadata !"punct", metadata !"punct", metadata !1073, i32 57, metadata !1074, i32 1, i32 1, i16 512} ; [ DW_TAG_variable ]
!1085 = metadata !{i32 786484, i32 0, metadata !1071, metadata !"alnum", metadata !"alnum", metadata !"alnum", metadata !1073, i32 58, metadata !1074, i32 1, i32 1, i16 12} ; [ DW_TAG_variable ]
!1086 = metadata !{i32 786484, i32 0, metadata !1087, metadata !"table_size", metadata !"table_size", metadata !"table_size", metadata !1069, i32 696, metadata !1172, i32 1, i32 1, i64 256} ; [ DW_TAG_variable ]
!1087 = metadata !{i32 786434, metadata !1088, metadata !"ctype<char>", metadata !1069, i32 672, i64 4608, i64 64, i32 0, i32 0, null, metadata !1089, i32 0, metadata !139, metadata !781} ; [ DW_TAG_class_type ]
!1088 = metadata !{i32 786489, null, metadata !"std", metadata !1069, i32 51} ; [ DW_TAG_namespace ]
!1089 = metadata !{metadata !1090, metadata !1091, metadata !1092, metadata !1093, metadata !1094, metadata !1097, metadata !1098, metadata !1100, metadata !1101, metadata !1105, metadata !1106, metadata !1107, metadata !1111, metadata !1114, metadata !1119, metadata !1123, metadata !1126, metadata !1127, metadata !1131, metadata !1137, metadata !1138, metadata !1139, metadata !1142, metadata !1145, metadata !1148, metadata !1151, metadata !1154, metadata !1157, metadata !1160, metadata !1161, metadata !1162, metadata !1163, metadata !1164, metadata !1165, metadata !1166, metadata !1167, metadata !1168, metadata !1171}
!1090 = metadata !{i32 786460, metadata !1087, null, metadata !1069, i32 0, i64 0, i64 0, i64 0, i32 0, metadata !139} ; [ DW_TAG_inheritance ]
!1091 = metadata !{i32 786460, metadata !1087, null, metadata !1069, i32 0, i64 0, i64 0, i64 0, i32 0, metadata !1071} ; [ DW_TAG_inheritance ]
!1092 = metadata !{i32 786445, metadata !1087, metadata !"_M_c_locale_ctype", metadata !1069, i32 681, i64 64, i64 64, i64 128, i32 2, metadata !159} ; [ DW_TAG_member ]
!1093 = metadata !{i32 786445, metadata !1087, metadata !"_M_del", metadata !1069, i32 682, i64 8, i64 8, i64 192, i32 2, metadata !225} ; [ DW_TAG_member ]
!1094 = metadata !{i32 786445, metadata !1087, metadata !"_M_toupper", metadata !1069, i32 683, i64 64, i64 64, i64 256, i32 2, metadata !1095} ; [ DW_TAG_member ]
!1095 = metadata !{i32 786454, metadata !1071, metadata !"__to_type", metadata !1069, i32 43, i64 0, i64 0, i64 0, i32 0, metadata !1096} ; [ DW_TAG_typedef ]
!1096 = metadata !{i32 786447, null, metadata !"", null, i32 0, i64 64, i64 64, i64 0, i32 0, metadata !958} ; [ DW_TAG_pointer_type ]
!1097 = metadata !{i32 786445, metadata !1087, metadata !"_M_tolower", metadata !1069, i32 684, i64 64, i64 64, i64 320, i32 2, metadata !1095} ; [ DW_TAG_member ]
!1098 = metadata !{i32 786445, metadata !1087, metadata !"_M_table", metadata !1069, i32 685, i64 64, i64 64, i64 384, i32 2, metadata !1099} ; [ DW_TAG_member ]
!1099 = metadata !{i32 786447, null, metadata !"", null, i32 0, i64 64, i64 64, i64 0, i32 0, metadata !1074} ; [ DW_TAG_pointer_type ]
!1100 = metadata !{i32 786445, metadata !1087, metadata !"_M_widen_ok", metadata !1069, i32 686, i64 8, i64 8, i64 448, i32 2, metadata !165} ; [ DW_TAG_member ]
!1101 = metadata !{i32 786445, metadata !1087, metadata !"_M_widen", metadata !1069, i32 687, i64 2048, i64 8, i64 456, i32 2, metadata !1102} ; [ DW_TAG_member ]
!1102 = metadata !{i32 786433, null, metadata !"", null, i32 0, i64 2048, i64 8, i32 0, i32 0, metadata !165, metadata !1103, i32 0, i32 0} ; [ DW_TAG_array_type ]
!1103 = metadata !{metadata !1104}
!1104 = metadata !{i32 786465, i64 0, i64 255}    ; [ DW_TAG_subrange_type ]
!1105 = metadata !{i32 786445, metadata !1087, metadata !"_M_narrow", metadata !1069, i32 688, i64 2048, i64 8, i64 2504, i32 2, metadata !1102} ; [ DW_TAG_member ]
!1106 = metadata !{i32 786445, metadata !1087, metadata !"_M_narrow_ok", metadata !1069, i32 689, i64 8, i64 8, i64 4552, i32 2, metadata !165} ; [ DW_TAG_member ]
!1107 = metadata !{i32 786478, i32 0, metadata !1087, metadata !"ctype", metadata !"ctype", metadata !"", metadata !1069, i32 709, metadata !1108, i1 false, i1 false, i32 0, i32 0, null, i32 384, i1 false, null, null, i32 0, metadata !99, i32 709} ; [ DW_TAG_subprogram ]
!1108 = metadata !{i32 786453, i32 0, metadata !"", i32 0, i32 0, i64 0, i64 0, i64 0, i32 0, null, metadata !1109, i32 0, i32 0} ; [ DW_TAG_subroutine_type ]
!1109 = metadata !{null, metadata !1110, metadata !1099, metadata !225, metadata !150}
!1110 = metadata !{i32 786447, i32 0, metadata !"", i32 0, i32 0, i64 64, i64 64, i64 0, i32 64, metadata !1087} ; [ DW_TAG_pointer_type ]
!1111 = metadata !{i32 786478, i32 0, metadata !1087, metadata !"ctype", metadata !"ctype", metadata !"", metadata !1069, i32 722, metadata !1112, i1 false, i1 false, i32 0, i32 0, null, i32 384, i1 false, null, null, i32 0, metadata !99, i32 722} ; [ DW_TAG_subprogram ]
!1112 = metadata !{i32 786453, i32 0, metadata !"", i32 0, i32 0, i64 0, i64 0, i64 0, i32 0, null, metadata !1113, i32 0, i32 0} ; [ DW_TAG_subroutine_type ]
!1113 = metadata !{null, metadata !1110, metadata !159, metadata !1099, metadata !225, metadata !150}
!1114 = metadata !{i32 786478, i32 0, metadata !1087, metadata !"is", metadata !"is", metadata !"_ZNKSt5ctypeIcE2isEtc", metadata !1069, i32 735, metadata !1115, i1 false, i1 false, i32 0, i32 0, null, i32 256, i1 false, null, null, i32 0, metadata !99, i32 735} ; [ DW_TAG_subprogram ]
!1115 = metadata !{i32 786453, i32 0, metadata !"", i32 0, i32 0, i64 0, i64 0, i64 0, i32 0, null, metadata !1116, i32 0, i32 0} ; [ DW_TAG_subroutine_type ]
!1116 = metadata !{metadata !225, metadata !1117, metadata !1075, metadata !165}
!1117 = metadata !{i32 786447, i32 0, metadata !"", i32 0, i32 0, i64 64, i64 64, i64 0, i32 64, metadata !1118} ; [ DW_TAG_pointer_type ]
!1118 = metadata !{i32 786470, null, metadata !"", null, i32 0, i64 0, i64 0, i64 0, i32 0, metadata !1087} ; [ DW_TAG_const_type ]
!1119 = metadata !{i32 786478, i32 0, metadata !1087, metadata !"is", metadata !"is", metadata !"_ZNKSt5ctypeIcE2isEPKcS2_Pt", metadata !1069, i32 750, metadata !1120, i1 false, i1 false, i32 0, i32 0, null, i32 256, i1 false, null, null, i32 0, metadata !99, i32 750} ; [ DW_TAG_subprogram ]
!1120 = metadata !{i32 786453, i32 0, metadata !"", i32 0, i32 0, i64 0, i64 0, i64 0, i32 0, null, metadata !1121, i32 0, i32 0} ; [ DW_TAG_subroutine_type ]
!1121 = metadata !{metadata !163, metadata !1117, metadata !163, metadata !163, metadata !1122}
!1122 = metadata !{i32 786447, null, metadata !"", null, i32 0, i64 64, i64 64, i64 0, i32 0, metadata !1075} ; [ DW_TAG_pointer_type ]
!1123 = metadata !{i32 786478, i32 0, metadata !1087, metadata !"scan_is", metadata !"scan_is", metadata !"_ZNKSt5ctypeIcE7scan_isEtPKcS2_", metadata !1069, i32 764, metadata !1124, i1 false, i1 false, i32 0, i32 0, null, i32 256, i1 false, null, null, i32 0, metadata !99, i32 764} ; [ DW_TAG_subprogram ]
!1124 = metadata !{i32 786453, i32 0, metadata !"", i32 0, i32 0, i64 0, i64 0, i64 0, i32 0, null, metadata !1125, i32 0, i32 0} ; [ DW_TAG_subroutine_type ]
!1125 = metadata !{metadata !163, metadata !1117, metadata !1075, metadata !163, metadata !163}
!1126 = metadata !{i32 786478, i32 0, metadata !1087, metadata !"scan_not", metadata !"scan_not", metadata !"_ZNKSt5ctypeIcE8scan_notEtPKcS2_", metadata !1069, i32 778, metadata !1124, i1 false, i1 false, i32 0, i32 0, null, i32 256, i1 false, null, null, i32 0, metadata !99, i32 778} ; [ DW_TAG_subprogram ]
!1127 = metadata !{i32 786478, i32 0, metadata !1087, metadata !"toupper", metadata !"toupper", metadata !"_ZNKSt5ctypeIcE7toupperEc", metadata !1069, i32 793, metadata !1128, i1 false, i1 false, i32 0, i32 0, null, i32 256, i1 false, null, null, i32 0, metadata !99, i32 793} ; [ DW_TAG_subprogram ]
!1128 = metadata !{i32 786453, i32 0, metadata !"", i32 0, i32 0, i64 0, i64 0, i64 0, i32 0, null, metadata !1129, i32 0, i32 0} ; [ DW_TAG_subroutine_type ]
!1129 = metadata !{metadata !1130, metadata !1117, metadata !1130}
!1130 = metadata !{i32 786454, metadata !1087, metadata !"char_type", metadata !1069, i32 677, i64 0, i64 0, i64 0, i32 0, metadata !165} ; [ DW_TAG_typedef ]
!1131 = metadata !{i32 786478, i32 0, metadata !1087, metadata !"toupper", metadata !"toupper", metadata !"_ZNKSt5ctypeIcE7toupperEPcPKc", metadata !1069, i32 810, metadata !1132, i1 false, i1 false, i32 0, i32 0, null, i32 256, i1 false, null, null, i32 0, metadata !99, i32 810} ; [ DW_TAG_subprogram ]
!1132 = metadata !{i32 786453, i32 0, metadata !"", i32 0, i32 0, i64 0, i64 0, i64 0, i32 0, null, metadata !1133, i32 0, i32 0} ; [ DW_TAG_subroutine_type ]
!1133 = metadata !{metadata !1134, metadata !1117, metadata !1136, metadata !1134}
!1134 = metadata !{i32 786447, null, metadata !"", null, i32 0, i64 64, i64 64, i64 0, i32 0, metadata !1135} ; [ DW_TAG_pointer_type ]
!1135 = metadata !{i32 786470, null, metadata !"", null, i32 0, i64 0, i64 0, i64 0, i32 0, metadata !1130} ; [ DW_TAG_const_type ]
!1136 = metadata !{i32 786447, null, metadata !"", null, i32 0, i64 64, i64 64, i64 0, i32 0, metadata !1130} ; [ DW_TAG_pointer_type ]
!1137 = metadata !{i32 786478, i32 0, metadata !1087, metadata !"tolower", metadata !"tolower", metadata !"_ZNKSt5ctypeIcE7tolowerEc", metadata !1069, i32 826, metadata !1128, i1 false, i1 false, i32 0, i32 0, null, i32 256, i1 false, null, null, i32 0, metadata !99, i32 826} ; [ DW_TAG_subprogram ]
!1138 = metadata !{i32 786478, i32 0, metadata !1087, metadata !"tolower", metadata !"tolower", metadata !"_ZNKSt5ctypeIcE7tolowerEPcPKc", metadata !1069, i32 843, metadata !1132, i1 false, i1 false, i32 0, i32 0, null, i32 256, i1 false, null, null, i32 0, metadata !99, i32 843} ; [ DW_TAG_subprogram ]
!1139 = metadata !{i32 786478, i32 0, metadata !1087, metadata !"widen", metadata !"widen", metadata !"_ZNKSt5ctypeIcE5widenEc", metadata !1069, i32 863, metadata !1140, i1 false, i1 false, i32 0, i32 0, null, i32 256, i1 false, null, null, i32 0, metadata !99, i32 863} ; [ DW_TAG_subprogram ]
!1140 = metadata !{i32 786453, i32 0, metadata !"", i32 0, i32 0, i64 0, i64 0, i64 0, i32 0, null, metadata !1141, i32 0, i32 0} ; [ DW_TAG_subroutine_type ]
!1141 = metadata !{metadata !1130, metadata !1117, metadata !165}
!1142 = metadata !{i32 786478, i32 0, metadata !1087, metadata !"widen", metadata !"widen", metadata !"_ZNKSt5ctypeIcE5widenEPKcS2_Pc", metadata !1069, i32 890, metadata !1143, i1 false, i1 false, i32 0, i32 0, null, i32 256, i1 false, null, null, i32 0, metadata !99, i32 890} ; [ DW_TAG_subprogram ]
!1143 = metadata !{i32 786453, i32 0, metadata !"", i32 0, i32 0, i64 0, i64 0, i64 0, i32 0, null, metadata !1144, i32 0, i32 0} ; [ DW_TAG_subroutine_type ]
!1144 = metadata !{metadata !163, metadata !1117, metadata !163, metadata !163, metadata !1136}
!1145 = metadata !{i32 786478, i32 0, metadata !1087, metadata !"narrow", metadata !"narrow", metadata !"_ZNKSt5ctypeIcE6narrowEcc", metadata !1069, i32 921, metadata !1146, i1 false, i1 false, i32 0, i32 0, null, i32 256, i1 false, null, null, i32 0, metadata !99, i32 921} ; [ DW_TAG_subprogram ]
!1146 = metadata !{i32 786453, i32 0, metadata !"", i32 0, i32 0, i64 0, i64 0, i64 0, i32 0, null, metadata !1147, i32 0, i32 0} ; [ DW_TAG_subroutine_type ]
!1147 = metadata !{metadata !165, metadata !1117, metadata !1130, metadata !165}
!1148 = metadata !{i32 786478, i32 0, metadata !1087, metadata !"narrow", metadata !"narrow", metadata !"_ZNKSt5ctypeIcE6narrowEPKcS2_cPc", metadata !1069, i32 954, metadata !1149, i1 false, i1 false, i32 0, i32 0, null, i32 256, i1 false, null, null, i32 0, metadata !99, i32 954} ; [ DW_TAG_subprogram ]
!1149 = metadata !{i32 786453, i32 0, metadata !"", i32 0, i32 0, i64 0, i64 0, i64 0, i32 0, null, metadata !1150, i32 0, i32 0} ; [ DW_TAG_subroutine_type ]
!1150 = metadata !{metadata !1134, metadata !1117, metadata !1134, metadata !1134, metadata !165, metadata !200}
!1151 = metadata !{i32 786478, i32 0, metadata !1087, metadata !"table", metadata !"table", metadata !"_ZNKSt5ctypeIcE5tableEv", metadata !1069, i32 972, metadata !1152, i1 false, i1 false, i32 0, i32 0, null, i32 256, i1 false, null, null, i32 0, metadata !99, i32 972} ; [ DW_TAG_subprogram ]
!1152 = metadata !{i32 786453, i32 0, metadata !"", i32 0, i32 0, i64 0, i64 0, i64 0, i32 0, null, metadata !1153, i32 0, i32 0} ; [ DW_TAG_subroutine_type ]
!1153 = metadata !{metadata !1099, metadata !1117}
!1154 = metadata !{i32 786478, i32 0, metadata !1087, metadata !"classic_table", metadata !"classic_table", metadata !"_ZNSt5ctypeIcE13classic_tableEv", metadata !1069, i32 977, metadata !1155, i1 false, i1 false, i32 0, i32 0, null, i32 256, i1 false, null, null, i32 0, metadata !99, i32 977} ; [ DW_TAG_subprogram ]
!1155 = metadata !{i32 786453, i32 0, metadata !"", i32 0, i32 0, i64 0, i64 0, i64 0, i32 0, null, metadata !1156, i32 0, i32 0} ; [ DW_TAG_subroutine_type ]
!1156 = metadata !{metadata !1099}
!1157 = metadata !{i32 786478, i32 0, metadata !1087, metadata !"~ctype", metadata !"~ctype", metadata !"", metadata !1069, i32 987, metadata !1158, i1 false, i1 false, i32 1, i32 0, metadata !1087, i32 258, i1 false, null, null, i32 0, metadata !99, i32 987} ; [ DW_TAG_subprogram ]
!1158 = metadata !{i32 786453, i32 0, metadata !"", i32 0, i32 0, i64 0, i64 0, i64 0, i32 0, null, metadata !1159, i32 0, i32 0} ; [ DW_TAG_subroutine_type ]
!1159 = metadata !{null, metadata !1110}
!1160 = metadata !{i32 786478, i32 0, metadata !1087, metadata !"do_toupper", metadata !"do_toupper", metadata !"_ZNKSt5ctypeIcE10do_toupperEc", metadata !1069, i32 1003, metadata !1128, i1 false, i1 false, i32 1, i32 2, metadata !1087, i32 258, i1 false, null, null, i32 0, metadata !99, i32 1003} ; [ DW_TAG_subprogram ]
!1161 = metadata !{i32 786478, i32 0, metadata !1087, metadata !"do_toupper", metadata !"do_toupper", metadata !"_ZNKSt5ctypeIcE10do_toupperEPcPKc", metadata !1069, i32 1020, metadata !1132, i1 false, i1 false, i32 1, i32 3, metadata !1087, i32 258, i1 false, null, null, i32 0, metadata !99, i32 1020} ; [ DW_TAG_subprogram ]
!1162 = metadata !{i32 786478, i32 0, metadata !1087, metadata !"do_tolower", metadata !"do_tolower", metadata !"_ZNKSt5ctypeIcE10do_tolowerEc", metadata !1069, i32 1036, metadata !1128, i1 false, i1 false, i32 1, i32 4, metadata !1087, i32 258, i1 false, null, null, i32 0, metadata !99, i32 1036} ; [ DW_TAG_subprogram ]
!1163 = metadata !{i32 786478, i32 0, metadata !1087, metadata !"do_tolower", metadata !"do_tolower", metadata !"_ZNKSt5ctypeIcE10do_tolowerEPcPKc", metadata !1069, i32 1053, metadata !1132, i1 false, i1 false, i32 1, i32 5, metadata !1087, i32 258, i1 false, null, null, i32 0, metadata !99, i32 1053} ; [ DW_TAG_subprogram ]
!1164 = metadata !{i32 786478, i32 0, metadata !1087, metadata !"do_widen", metadata !"do_widen", metadata !"_ZNKSt5ctypeIcE8do_widenEc", metadata !1069, i32 1073, metadata !1140, i1 false, i1 false, i32 1, i32 6, metadata !1087, i32 258, i1 false, null, null, i32 0, metadata !99, i32 1073} ; [ DW_TAG_subprogram ]
!1165 = metadata !{i32 786478, i32 0, metadata !1087, metadata !"do_widen", metadata !"do_widen", metadata !"_ZNKSt5ctypeIcE8do_widenEPKcS2_Pc", metadata !1069, i32 1096, metadata !1143, i1 false, i1 false, i32 1, i32 7, metadata !1087, i32 258, i1 false, null, null, i32 0, metadata !99, i32 1096} ; [ DW_TAG_subprogram ]
!1166 = metadata !{i32 786478, i32 0, metadata !1087, metadata !"do_narrow", metadata !"do_narrow", metadata !"_ZNKSt5ctypeIcE9do_narrowEcc", metadata !1069, i32 1122, metadata !1146, i1 false, i1 false, i32 1, i32 8, metadata !1087, i32 258, i1 false, null, null, i32 0, metadata !99, i32 1122} ; [ DW_TAG_subprogram ]
!1167 = metadata !{i32 786478, i32 0, metadata !1087, metadata !"do_narrow", metadata !"do_narrow", metadata !"_ZNKSt5ctypeIcE9do_narrowEPKcS2_cPc", metadata !1069, i32 1148, metadata !1149, i1 false, i1 false, i32 1, i32 9, metadata !1087, i32 258, i1 false, null, null, i32 0, metadata !99, i32 1148} ; [ DW_TAG_subprogram ]
!1168 = metadata !{i32 786478, i32 0, metadata !1087, metadata !"_M_narrow_init", metadata !"_M_narrow_init", metadata !"_ZNKSt5ctypeIcE14_M_narrow_initEv", metadata !1069, i32 1156, metadata !1169, i1 false, i1 false, i32 0, i32 0, null, i32 257, i1 false, null, null, i32 0, metadata !99, i32 1156} ; [ DW_TAG_subprogram ]
!1169 = metadata !{i32 786453, i32 0, metadata !"", i32 0, i32 0, i64 0, i64 0, i64 0, i32 0, null, metadata !1170, i32 0, i32 0} ; [ DW_TAG_subroutine_type ]
!1170 = metadata !{null, metadata !1117}
!1171 = metadata !{i32 786478, i32 0, metadata !1087, metadata !"_M_widen_init", metadata !"_M_widen_init", metadata !"_ZNKSt5ctypeIcE13_M_widen_initEv", metadata !1069, i32 1157, metadata !1169, i1 false, i1 false, i32 0, i32 0, null, i32 257, i1 false, null, null, i32 0, metadata !99, i32 1157} ; [ DW_TAG_subprogram ]
!1172 = metadata !{i32 786470, null, metadata !"", null, i32 0, i64 0, i64 0, i64 0, i32 0, metadata !150} ; [ DW_TAG_const_type ]
!1173 = metadata !{i32 786484, i32 0, metadata !1087, metadata !"id", metadata !"id", metadata !"_ZNSt5ctypeIcE2idE", metadata !1069, i32 694, metadata !238, i32 0, i32 1, null} ; [ DW_TAG_variable ]
!1174 = metadata !{i32 786484, i32 0, metadata !1175, metadata !"id", metadata !"id", metadata !"_ZNSt5ctypeIwE2idE", metadata !1069, i32 1196, metadata !238, i32 0, i32 1, null} ; [ DW_TAG_variable ]
!1175 = metadata !{i32 786434, metadata !1088, metadata !"ctype<wchar_t>", metadata !1069, i32 1173, i64 5888, i64 64, i32 0, i32 0, null, metadata !1176, i32 0, metadata !139, metadata !1237} ; [ DW_TAG_class_type ]
!1176 = metadata !{metadata !1177, metadata !1239, metadata !1240, metadata !1241, metadata !1245, metadata !1248, metadata !1252, metadata !1256, metadata !1260, metadata !1263, metadata !1268, metadata !1271, metadata !1275, metadata !1280, metadata !1283, metadata !1284, metadata !1287, metadata !1291, metadata !1292, metadata !1293, metadata !1296, metadata !1299, metadata !1302, metadata !1305}
!1177 = metadata !{i32 786460, metadata !1175, null, metadata !1069, i32 0, i64 0, i64 0, i64 0, i32 0, metadata !1178} ; [ DW_TAG_inheritance ]
!1178 = metadata !{i32 786434, metadata !1088, metadata !"__ctype_abstract_base<wchar_t>", metadata !1069, i32 142, i64 128, i64 64, i32 0, i32 0, null, metadata !1179, i32 0, metadata !139, metadata !1237} ; [ DW_TAG_class_type ]
!1179 = metadata !{metadata !1180, metadata !1181, metadata !1182, metadata !1188, metadata !1193, metadata !1196, metadata !1197, metadata !1200, metadata !1204, metadata !1205, metadata !1206, metadata !1209, metadata !1212, metadata !1215, metadata !1218, metadata !1222, metadata !1225, metadata !1226, metadata !1227, metadata !1228, metadata !1229, metadata !1230, metadata !1231, metadata !1232, metadata !1233, metadata !1234, metadata !1235, metadata !1236}
!1180 = metadata !{i32 786460, metadata !1178, null, metadata !1069, i32 0, i64 0, i64 0, i64 0, i32 0, metadata !139} ; [ DW_TAG_inheritance ]
!1181 = metadata !{i32 786460, metadata !1178, null, metadata !1069, i32 0, i64 0, i64 0, i64 0, i32 0, metadata !1071} ; [ DW_TAG_inheritance ]
!1182 = metadata !{i32 786478, i32 0, metadata !1178, metadata !"is", metadata !"is", metadata !"_ZNKSt21__ctype_abstract_baseIwE2isEtw", metadata !1069, i32 160, metadata !1183, i1 false, i1 false, i32 0, i32 0, null, i32 256, i1 false, null, null, i32 0, metadata !99, i32 160} ; [ DW_TAG_subprogram ]
!1183 = metadata !{i32 786453, i32 0, metadata !"", i32 0, i32 0, i64 0, i64 0, i64 0, i32 0, null, metadata !1184, i32 0, i32 0} ; [ DW_TAG_subroutine_type ]
!1184 = metadata !{metadata !225, metadata !1185, metadata !1075, metadata !1187}
!1185 = metadata !{i32 786447, i32 0, metadata !"", i32 0, i32 0, i64 64, i64 64, i64 0, i32 64, metadata !1186} ; [ DW_TAG_pointer_type ]
!1186 = metadata !{i32 786470, null, metadata !"", null, i32 0, i64 0, i64 0, i64 0, i32 0, metadata !1178} ; [ DW_TAG_const_type ]
!1187 = metadata !{i32 786454, metadata !1178, metadata !"char_type", metadata !1069, i32 147, i64 0, i64 0, i64 0, i32 0, metadata !993} ; [ DW_TAG_typedef ]
!1188 = metadata !{i32 786478, i32 0, metadata !1178, metadata !"is", metadata !"is", metadata !"_ZNKSt21__ctype_abstract_baseIwE2isEPKwS2_Pt", metadata !1069, i32 177, metadata !1189, i1 false, i1 false, i32 0, i32 0, null, i32 256, i1 false, null, null, i32 0, metadata !99, i32 177} ; [ DW_TAG_subprogram ]
!1189 = metadata !{i32 786453, i32 0, metadata !"", i32 0, i32 0, i64 0, i64 0, i64 0, i32 0, null, metadata !1190, i32 0, i32 0} ; [ DW_TAG_subroutine_type ]
!1190 = metadata !{metadata !1191, metadata !1185, metadata !1191, metadata !1191, metadata !1122}
!1191 = metadata !{i32 786447, null, metadata !"", null, i32 0, i64 64, i64 64, i64 0, i32 0, metadata !1192} ; [ DW_TAG_pointer_type ]
!1192 = metadata !{i32 786470, null, metadata !"", null, i32 0, i64 0, i64 0, i64 0, i32 0, metadata !1187} ; [ DW_TAG_const_type ]
!1193 = metadata !{i32 786478, i32 0, metadata !1178, metadata !"scan_is", metadata !"scan_is", metadata !"_ZNKSt21__ctype_abstract_baseIwE7scan_isEtPKwS2_", metadata !1069, i32 193, metadata !1194, i1 false, i1 false, i32 0, i32 0, null, i32 256, i1 false, null, null, i32 0, metadata !99, i32 193} ; [ DW_TAG_subprogram ]
!1194 = metadata !{i32 786453, i32 0, metadata !"", i32 0, i32 0, i64 0, i64 0, i64 0, i32 0, null, metadata !1195, i32 0, i32 0} ; [ DW_TAG_subroutine_type ]
!1195 = metadata !{metadata !1191, metadata !1185, metadata !1075, metadata !1191, metadata !1191}
!1196 = metadata !{i32 786478, i32 0, metadata !1178, metadata !"scan_not", metadata !"scan_not", metadata !"_ZNKSt21__ctype_abstract_baseIwE8scan_notEtPKwS2_", metadata !1069, i32 209, metadata !1194, i1 false, i1 false, i32 0, i32 0, null, i32 256, i1 false, null, null, i32 0, metadata !99, i32 209} ; [ DW_TAG_subprogram ]
!1197 = metadata !{i32 786478, i32 0, metadata !1178, metadata !"toupper", metadata !"toupper", metadata !"_ZNKSt21__ctype_abstract_baseIwE7toupperEw", metadata !1069, i32 223, metadata !1198, i1 false, i1 false, i32 0, i32 0, null, i32 256, i1 false, null, null, i32 0, metadata !99, i32 223} ; [ DW_TAG_subprogram ]
!1198 = metadata !{i32 786453, i32 0, metadata !"", i32 0, i32 0, i64 0, i64 0, i64 0, i32 0, null, metadata !1199, i32 0, i32 0} ; [ DW_TAG_subroutine_type ]
!1199 = metadata !{metadata !1187, metadata !1185, metadata !1187}
!1200 = metadata !{i32 786478, i32 0, metadata !1178, metadata !"toupper", metadata !"toupper", metadata !"_ZNKSt21__ctype_abstract_baseIwE7toupperEPwPKw", metadata !1069, i32 238, metadata !1201, i1 false, i1 false, i32 0, i32 0, null, i32 256, i1 false, null, null, i32 0, metadata !99, i32 238} ; [ DW_TAG_subprogram ]
!1201 = metadata !{i32 786453, i32 0, metadata !"", i32 0, i32 0, i64 0, i64 0, i64 0, i32 0, null, metadata !1202, i32 0, i32 0} ; [ DW_TAG_subroutine_type ]
!1202 = metadata !{metadata !1191, metadata !1185, metadata !1203, metadata !1191}
!1203 = metadata !{i32 786447, null, metadata !"", null, i32 0, i64 64, i64 64, i64 0, i32 0, metadata !1187} ; [ DW_TAG_pointer_type ]
!1204 = metadata !{i32 786478, i32 0, metadata !1178, metadata !"tolower", metadata !"tolower", metadata !"_ZNKSt21__ctype_abstract_baseIwE7tolowerEw", metadata !1069, i32 252, metadata !1198, i1 false, i1 false, i32 0, i32 0, null, i32 256, i1 false, null, null, i32 0, metadata !99, i32 252} ; [ DW_TAG_subprogram ]
!1205 = metadata !{i32 786478, i32 0, metadata !1178, metadata !"tolower", metadata !"tolower", metadata !"_ZNKSt21__ctype_abstract_baseIwE7tolowerEPwPKw", metadata !1069, i32 267, metadata !1201, i1 false, i1 false, i32 0, i32 0, null, i32 256, i1 false, null, null, i32 0, metadata !99, i32 267} ; [ DW_TAG_subprogram ]
!1206 = metadata !{i32 786478, i32 0, metadata !1178, metadata !"widen", metadata !"widen", metadata !"_ZNKSt21__ctype_abstract_baseIwE5widenEc", metadata !1069, i32 284, metadata !1207, i1 false, i1 false, i32 0, i32 0, null, i32 256, i1 false, null, null, i32 0, metadata !99, i32 284} ; [ DW_TAG_subprogram ]
!1207 = metadata !{i32 786453, i32 0, metadata !"", i32 0, i32 0, i64 0, i64 0, i64 0, i32 0, null, metadata !1208, i32 0, i32 0} ; [ DW_TAG_subroutine_type ]
!1208 = metadata !{metadata !1187, metadata !1185, metadata !165}
!1209 = metadata !{i32 786478, i32 0, metadata !1178, metadata !"widen", metadata !"widen", metadata !"_ZNKSt21__ctype_abstract_baseIwE5widenEPKcS2_Pw", metadata !1069, i32 303, metadata !1210, i1 false, i1 false, i32 0, i32 0, null, i32 256, i1 false, null, null, i32 0, metadata !99, i32 303} ; [ DW_TAG_subprogram ]
!1210 = metadata !{i32 786453, i32 0, metadata !"", i32 0, i32 0, i64 0, i64 0, i64 0, i32 0, null, metadata !1211, i32 0, i32 0} ; [ DW_TAG_subroutine_type ]
!1211 = metadata !{metadata !163, metadata !1185, metadata !163, metadata !163, metadata !1203}
!1212 = metadata !{i32 786478, i32 0, metadata !1178, metadata !"narrow", metadata !"narrow", metadata !"_ZNKSt21__ctype_abstract_baseIwE6narrowEwc", metadata !1069, i32 322, metadata !1213, i1 false, i1 false, i32 0, i32 0, null, i32 256, i1 false, null, null, i32 0, metadata !99, i32 322} ; [ DW_TAG_subprogram ]
!1213 = metadata !{i32 786453, i32 0, metadata !"", i32 0, i32 0, i64 0, i64 0, i64 0, i32 0, null, metadata !1214, i32 0, i32 0} ; [ DW_TAG_subroutine_type ]
!1214 = metadata !{metadata !165, metadata !1185, metadata !1187, metadata !165}
!1215 = metadata !{i32 786478, i32 0, metadata !1178, metadata !"narrow", metadata !"narrow", metadata !"_ZNKSt21__ctype_abstract_baseIwE6narrowEPKwS2_cPc", metadata !1069, i32 344, metadata !1216, i1 false, i1 false, i32 0, i32 0, null, i32 256, i1 false, null, null, i32 0, metadata !99, i32 344} ; [ DW_TAG_subprogram ]
!1216 = metadata !{i32 786453, i32 0, metadata !"", i32 0, i32 0, i64 0, i64 0, i64 0, i32 0, null, metadata !1217, i32 0, i32 0} ; [ DW_TAG_subroutine_type ]
!1217 = metadata !{metadata !1191, metadata !1185, metadata !1191, metadata !1191, metadata !165, metadata !200}
!1218 = metadata !{i32 786478, i32 0, metadata !1178, metadata !"__ctype_abstract_base", metadata !"__ctype_abstract_base", metadata !"", metadata !1069, i32 350, metadata !1219, i1 false, i1 false, i32 0, i32 0, null, i32 386, i1 false, null, null, i32 0, metadata !99, i32 350} ; [ DW_TAG_subprogram ]
!1219 = metadata !{i32 786453, i32 0, metadata !"", i32 0, i32 0, i64 0, i64 0, i64 0, i32 0, null, metadata !1220, i32 0, i32 0} ; [ DW_TAG_subroutine_type ]
!1220 = metadata !{null, metadata !1221, metadata !150}
!1221 = metadata !{i32 786447, i32 0, metadata !"", i32 0, i32 0, i64 64, i64 64, i64 0, i32 64, metadata !1178} ; [ DW_TAG_pointer_type ]
!1222 = metadata !{i32 786478, i32 0, metadata !1178, metadata !"~__ctype_abstract_base", metadata !"~__ctype_abstract_base", metadata !"", metadata !1069, i32 353, metadata !1223, i1 false, i1 false, i32 1, i32 0, metadata !1178, i32 258, i1 false, null, null, i32 0, metadata !99, i32 353} ; [ DW_TAG_subprogram ]
!1223 = metadata !{i32 786453, i32 0, metadata !"", i32 0, i32 0, i64 0, i64 0, i64 0, i32 0, null, metadata !1224, i32 0, i32 0} ; [ DW_TAG_subroutine_type ]
!1224 = metadata !{null, metadata !1221}
!1225 = metadata !{i32 786478, i32 0, metadata !1178, metadata !"do_is", metadata !"do_is", metadata !"_ZNKSt21__ctype_abstract_baseIwE5do_isEtw", metadata !1069, i32 369, metadata !1183, i1 false, i1 false, i32 2, i32 2, metadata !1178, i32 258, i1 false, null, null, i32 0, metadata !99, i32 369} ; [ DW_TAG_subprogram ]
!1226 = metadata !{i32 786478, i32 0, metadata !1178, metadata !"do_is", metadata !"do_is", metadata !"_ZNKSt21__ctype_abstract_baseIwE5do_isEPKwS2_Pt", metadata !1069, i32 388, metadata !1189, i1 false, i1 false, i32 2, i32 3, metadata !1178, i32 258, i1 false, null, null, i32 0, metadata !99, i32 388} ; [ DW_TAG_subprogram ]
!1227 = metadata !{i32 786478, i32 0, metadata !1178, metadata !"do_scan_is", metadata !"do_scan_is", metadata !"_ZNKSt21__ctype_abstract_baseIwE10do_scan_isEtPKwS2_", metadata !1069, i32 407, metadata !1194, i1 false, i1 false, i32 2, i32 4, metadata !1178, i32 258, i1 false, null, null, i32 0, metadata !99, i32 407} ; [ DW_TAG_subprogram ]
!1228 = metadata !{i32 786478, i32 0, metadata !1178, metadata !"do_scan_not", metadata !"do_scan_not", metadata !"_ZNKSt21__ctype_abstract_baseIwE11do_scan_notEtPKwS2_", metadata !1069, i32 426, metadata !1194, i1 false, i1 false, i32 2, i32 5, metadata !1178, i32 258, i1 false, null, null, i32 0, metadata !99, i32 426} ; [ DW_TAG_subprogram ]
!1229 = metadata !{i32 786478, i32 0, metadata !1178, metadata !"do_toupper", metadata !"do_toupper", metadata !"_ZNKSt21__ctype_abstract_baseIwE10do_toupperEw", metadata !1069, i32 444, metadata !1198, i1 false, i1 false, i32 2, i32 6, metadata !1178, i32 258, i1 false, null, null, i32 0, metadata !99, i32 444} ; [ DW_TAG_subprogram ]
!1230 = metadata !{i32 786478, i32 0, metadata !1178, metadata !"do_toupper", metadata !"do_toupper", metadata !"_ZNKSt21__ctype_abstract_baseIwE10do_toupperEPwPKw", metadata !1069, i32 461, metadata !1201, i1 false, i1 false, i32 2, i32 7, metadata !1178, i32 258, i1 false, null, null, i32 0, metadata !99, i32 461} ; [ DW_TAG_subprogram ]
!1231 = metadata !{i32 786478, i32 0, metadata !1178, metadata !"do_tolower", metadata !"do_tolower", metadata !"_ZNKSt21__ctype_abstract_baseIwE10do_tolowerEw", metadata !1069, i32 477, metadata !1198, i1 false, i1 false, i32 2, i32 8, metadata !1178, i32 258, i1 false, null, null, i32 0, metadata !99, i32 477} ; [ DW_TAG_subprogram ]
!1232 = metadata !{i32 786478, i32 0, metadata !1178, metadata !"do_tolower", metadata !"do_tolower", metadata !"_ZNKSt21__ctype_abstract_baseIwE10do_tolowerEPwPKw", metadata !1069, i32 494, metadata !1201, i1 false, i1 false, i32 2, i32 9, metadata !1178, i32 258, i1 false, null, null, i32 0, metadata !99, i32 494} ; [ DW_TAG_subprogram ]
!1233 = metadata !{i32 786478, i32 0, metadata !1178, metadata !"do_widen", metadata !"do_widen", metadata !"_ZNKSt21__ctype_abstract_baseIwE8do_widenEc", metadata !1069, i32 513, metadata !1207, i1 false, i1 false, i32 2, i32 10, metadata !1178, i32 258, i1 false, null, null, i32 0, metadata !99, i32 513} ; [ DW_TAG_subprogram ]
!1234 = metadata !{i32 786478, i32 0, metadata !1178, metadata !"do_widen", metadata !"do_widen", metadata !"_ZNKSt21__ctype_abstract_baseIwE8do_widenEPKcS2_Pw", metadata !1069, i32 534, metadata !1210, i1 false, i1 false, i32 2, i32 11, metadata !1178, i32 258, i1 false, null, null, i32 0, metadata !99, i32 534} ; [ DW_TAG_subprogram ]
!1235 = metadata !{i32 786478, i32 0, metadata !1178, metadata !"do_narrow", metadata !"do_narrow", metadata !"_ZNKSt21__ctype_abstract_baseIwE9do_narrowEwc", metadata !1069, i32 556, metadata !1213, i1 false, i1 false, i32 2, i32 12, metadata !1178, i32 258, i1 false, null, null, i32 0, metadata !99, i32 556} ; [ DW_TAG_subprogram ]
!1236 = metadata !{i32 786478, i32 0, metadata !1178, metadata !"do_narrow", metadata !"do_narrow", metadata !"_ZNKSt21__ctype_abstract_baseIwE9do_narrowEPKwS2_cPc", metadata !1069, i32 580, metadata !1216, i1 false, i1 false, i32 2, i32 13, metadata !1178, i32 258, i1 false, null, null, i32 0, metadata !99, i32 580} ; [ DW_TAG_subprogram ]
!1237 = metadata !{metadata !1238}
!1238 = metadata !{i32 786479, null, metadata !"_CharT", metadata !993, null, i32 0, i32 0} ; [ DW_TAG_template_type_parameter ]
!1239 = metadata !{i32 786445, metadata !1175, metadata !"_M_c_locale_ctype", metadata !1069, i32 1182, i64 64, i64 64, i64 128, i32 2, metadata !159} ; [ DW_TAG_member ]
!1240 = metadata !{i32 786445, metadata !1175, metadata !"_M_narrow_ok", metadata !1069, i32 1185, i64 8, i64 8, i64 192, i32 2, metadata !225} ; [ DW_TAG_member ]
!1241 = metadata !{i32 786445, metadata !1175, metadata !"_M_narrow", metadata !1069, i32 1186, i64 1024, i64 8, i64 200, i32 2, metadata !1242} ; [ DW_TAG_member ]
!1242 = metadata !{i32 786433, null, metadata !"", null, i32 0, i64 1024, i64 8, i32 0, i32 0, metadata !165, metadata !1243, i32 0, i32 0} ; [ DW_TAG_array_type ]
!1243 = metadata !{metadata !1244}
!1244 = metadata !{i32 786465, i64 0, i64 127}    ; [ DW_TAG_subrange_type ]
!1245 = metadata !{i32 786445, metadata !1175, metadata !"_M_widen", metadata !1069, i32 1187, i64 4096, i64 16, i64 1232, i32 2, metadata !1246} ; [ DW_TAG_member ]
!1246 = metadata !{i32 786433, null, metadata !"", null, i32 0, i64 4096, i64 16, i32 0, i32 0, metadata !1247, metadata !1103, i32 0, i32 0} ; [ DW_TAG_array_type ]
!1247 = metadata !{i32 786454, null, metadata !"wint_t", metadata !1069, i32 436, i64 0, i64 0, i64 0, i32 0, metadata !983} ; [ DW_TAG_typedef ]
!1248 = metadata !{i32 786445, metadata !1175, metadata !"_M_bit", metadata !1069, i32 1190, i64 256, i64 16, i64 5328, i32 2, metadata !1249} ; [ DW_TAG_member ]
!1249 = metadata !{i32 786433, null, metadata !"", null, i32 0, i64 256, i64 16, i32 0, i32 0, metadata !1075, metadata !1250, i32 0, i32 0} ; [ DW_TAG_array_type ]
!1250 = metadata !{metadata !1251}
!1251 = metadata !{i32 786465, i64 0, i64 15}     ; [ DW_TAG_subrange_type ]
!1252 = metadata !{i32 786445, metadata !1175, metadata !"_M_wmask", metadata !1069, i32 1191, i64 256, i64 16, i64 5584, i32 2, metadata !1253} ; [ DW_TAG_member ]
!1253 = metadata !{i32 786433, null, metadata !"", null, i32 0, i64 256, i64 16, i32 0, i32 0, metadata !1254, metadata !1250, i32 0, i32 0} ; [ DW_TAG_array_type ]
!1254 = metadata !{i32 786454, metadata !1175, metadata !"__wmask_type", metadata !1069, i32 1179, i64 0, i64 0, i64 0, i32 0, metadata !1255} ; [ DW_TAG_typedef ]
!1255 = metadata !{i32 786454, null, metadata !"wctype_t", metadata !1069, i32 437, i64 0, i64 0, i64 0, i32 0, metadata !983} ; [ DW_TAG_typedef ]
!1256 = metadata !{i32 786478, i32 0, metadata !1175, metadata !"ctype", metadata !"ctype", metadata !"", metadata !1069, i32 1206, metadata !1257, i1 false, i1 false, i32 0, i32 0, null, i32 384, i1 false, null, null, i32 0, metadata !99, i32 1206} ; [ DW_TAG_subprogram ]
!1257 = metadata !{i32 786453, i32 0, metadata !"", i32 0, i32 0, i64 0, i64 0, i64 0, i32 0, null, metadata !1258, i32 0, i32 0} ; [ DW_TAG_subroutine_type ]
!1258 = metadata !{null, metadata !1259, metadata !150}
!1259 = metadata !{i32 786447, i32 0, metadata !"", i32 0, i32 0, i64 64, i64 64, i64 0, i32 64, metadata !1175} ; [ DW_TAG_pointer_type ]
!1260 = metadata !{i32 786478, i32 0, metadata !1175, metadata !"ctype", metadata !"ctype", metadata !"", metadata !1069, i32 1217, metadata !1261, i1 false, i1 false, i32 0, i32 0, null, i32 384, i1 false, null, null, i32 0, metadata !99, i32 1217} ; [ DW_TAG_subprogram ]
!1261 = metadata !{i32 786453, i32 0, metadata !"", i32 0, i32 0, i64 0, i64 0, i64 0, i32 0, null, metadata !1262, i32 0, i32 0} ; [ DW_TAG_subroutine_type ]
!1262 = metadata !{null, metadata !1259, metadata !159, metadata !150}
!1263 = metadata !{i32 786478, i32 0, metadata !1175, metadata !"_M_convert_to_wmask", metadata !"_M_convert_to_wmask", metadata !"_ZNKSt5ctypeIwE19_M_convert_to_wmaskEt", metadata !1069, i32 1221, metadata !1264, i1 false, i1 false, i32 0, i32 0, null, i32 258, i1 false, null, null, i32 0, metadata !99, i32 1221} ; [ DW_TAG_subprogram ]
!1264 = metadata !{i32 786453, i32 0, metadata !"", i32 0, i32 0, i64 0, i64 0, i64 0, i32 0, null, metadata !1265, i32 0, i32 0} ; [ DW_TAG_subroutine_type ]
!1265 = metadata !{metadata !1254, metadata !1266, metadata !1074}
!1266 = metadata !{i32 786447, i32 0, metadata !"", i32 0, i32 0, i64 64, i64 64, i64 0, i32 64, metadata !1267} ; [ DW_TAG_pointer_type ]
!1267 = metadata !{i32 786470, null, metadata !"", null, i32 0, i64 0, i64 0, i64 0, i32 0, metadata !1175} ; [ DW_TAG_const_type ]
!1268 = metadata !{i32 786478, i32 0, metadata !1175, metadata !"~ctype", metadata !"~ctype", metadata !"", metadata !1069, i32 1225, metadata !1269, i1 false, i1 false, i32 1, i32 0, metadata !1175, i32 258, i1 false, null, null, i32 0, metadata !99, i32 1225} ; [ DW_TAG_subprogram ]
!1269 = metadata !{i32 786453, i32 0, metadata !"", i32 0, i32 0, i64 0, i64 0, i64 0, i32 0, null, metadata !1270, i32 0, i32 0} ; [ DW_TAG_subroutine_type ]
!1270 = metadata !{null, metadata !1259}
!1271 = metadata !{i32 786478, i32 0, metadata !1175, metadata !"do_is", metadata !"do_is", metadata !"_ZNKSt5ctypeIwE5do_isEtw", metadata !1069, i32 1241, metadata !1272, i1 false, i1 false, i32 1, i32 2, metadata !1175, i32 258, i1 false, null, null, i32 0, metadata !99, i32 1241} ; [ DW_TAG_subprogram ]
!1272 = metadata !{i32 786453, i32 0, metadata !"", i32 0, i32 0, i64 0, i64 0, i64 0, i32 0, null, metadata !1273, i32 0, i32 0} ; [ DW_TAG_subroutine_type ]
!1273 = metadata !{metadata !225, metadata !1266, metadata !1075, metadata !1274}
!1274 = metadata !{i32 786454, metadata !1175, metadata !"char_type", metadata !1069, i32 1178, i64 0, i64 0, i64 0, i32 0, metadata !993} ; [ DW_TAG_typedef ]
